Archive member included because of file (symbol)

c:/altera/13.0sp1/nios2eds/bin/gnu/h-i686-mingw32/bin/../lib/gcc/nios2-elf/4.1.2/../../../../nios2-elf/lib\libc.a(lib_a-printf.o)
                              obj/default/hello_ucosii.o (printf)
c:/altera/13.0sp1/nios2eds/bin/gnu/h-i686-mingw32/bin/../lib/gcc/nios2-elf/4.1.2/../../../../nios2-elf/lib\libc.a(lib_a-puts.o)
                              obj/default/hello_ucosii.o (puts)
c:/altera/13.0sp1/nios2eds/bin/gnu/h-i686-mingw32/bin/../lib/gcc/nios2-elf/4.1.2/../../../../nios2-elf/lib\libc.a(lib_a-sprintf.o)
                              obj/default/hello_ucosii.o (sprintf)
c:/altera/13.0sp1/nios2eds/bin/gnu/h-i686-mingw32/bin/../lib/gcc/nios2-elf/4.1.2/../../../../nios2-elf/lib\libc.a(lib_a-strlen.o)
                              c:/altera/13.0sp1/nios2eds/bin/gnu/h-i686-mingw32/bin/../lib/gcc/nios2-elf/4.1.2/../../../../nios2-elf/lib\libc.a(lib_a-puts.o) (strlen)
c:/altera/13.0sp1/nios2eds/bin/gnu/h-i686-mingw32/bin/../lib/gcc/nios2-elf/4.1.2/../../../../nios2-elf/lib\libc.a(lib_a-vfprintf.o)
                              c:/altera/13.0sp1/nios2eds/bin/gnu/h-i686-mingw32/bin/../lib/gcc/nios2-elf/4.1.2/../../../../nios2-elf/lib\libc.a(lib_a-printf.o) (___vfprintf_internal_r)
c:/altera/13.0sp1/nios2eds/bin/gnu/h-i686-mingw32/bin/../lib/gcc/nios2-elf/4.1.2/../../../../nios2-elf/lib\libc.a(lib_a-wsetup.o)
                              c:/altera/13.0sp1/nios2eds/bin/gnu/h-i686-mingw32/bin/../lib/gcc/nios2-elf/4.1.2/../../../../nios2-elf/lib\libc.a(lib_a-vfprintf.o) (__swsetup_r)
c:/altera/13.0sp1/nios2eds/bin/gnu/h-i686-mingw32/bin/../lib/gcc/nios2-elf/4.1.2/../../../../nios2-elf/lib\libc.a(lib_a-dtoa.o)
                              c:/altera/13.0sp1/nios2eds/bin/gnu/h-i686-mingw32/bin/../lib/gcc/nios2-elf/4.1.2/../../../../nios2-elf/lib\libc.a(lib_a-vfprintf.o) (_dtoa_r)
c:/altera/13.0sp1/nios2eds/bin/gnu/h-i686-mingw32/bin/../lib/gcc/nios2-elf/4.1.2/../../../../nios2-elf/lib\libc.a(lib_a-fflush.o)
                              c:/altera/13.0sp1/nios2eds/bin/gnu/h-i686-mingw32/bin/../lib/gcc/nios2-elf/4.1.2/../../../../nios2-elf/lib\libc.a(lib_a-vfprintf.o) (_fflush_r)
c:/altera/13.0sp1/nios2eds/bin/gnu/h-i686-mingw32/bin/../lib/gcc/nios2-elf/4.1.2/../../../../nios2-elf/lib\libc.a(lib_a-findfp.o)
                              c:/altera/13.0sp1/nios2eds/bin/gnu/h-i686-mingw32/bin/../lib/gcc/nios2-elf/4.1.2/../../../../nios2-elf/lib\libc.a(lib_a-vfprintf.o) (__sinit)
c:/altera/13.0sp1/nios2eds/bin/gnu/h-i686-mingw32/bin/../lib/gcc/nios2-elf/4.1.2/../../../../nios2-elf/lib\libc.a(lib_a-freer.o)
                              c:/altera/13.0sp1/nios2eds/bin/gnu/h-i686-mingw32/bin/../lib/gcc/nios2-elf/4.1.2/../../../../nios2-elf/lib\libc.a(lib_a-wsetup.o) (_free_r)
c:/altera/13.0sp1/nios2eds/bin/gnu/h-i686-mingw32/bin/../lib/gcc/nios2-elf/4.1.2/../../../../nios2-elf/lib\libc.a(lib_a-fvwrite.o)
                              c:/altera/13.0sp1/nios2eds/bin/gnu/h-i686-mingw32/bin/../lib/gcc/nios2-elf/4.1.2/../../../../nios2-elf/lib\libc.a(lib_a-puts.o) (__sfvwrite_r)
c:/altera/13.0sp1/nios2eds/bin/gnu/h-i686-mingw32/bin/../lib/gcc/nios2-elf/4.1.2/../../../../nios2-elf/lib\libc.a(lib_a-fwalk.o)
                              c:/altera/13.0sp1/nios2eds/bin/gnu/h-i686-mingw32/bin/../lib/gcc/nios2-elf/4.1.2/../../../../nios2-elf/lib\libc.a(lib_a-fflush.o) (_fwalk_reent)
c:/altera/13.0sp1/nios2eds/bin/gnu/h-i686-mingw32/bin/../lib/gcc/nios2-elf/4.1.2/../../../../nios2-elf/lib\libc.a(lib_a-impure.o)
                              c:/altera/13.0sp1/nios2eds/bin/gnu/h-i686-mingw32/bin/../lib/gcc/nios2-elf/4.1.2/../../../../nios2-elf/lib\libc.a(lib_a-printf.o) (_impure_ptr)
c:/altera/13.0sp1/nios2eds/bin/gnu/h-i686-mingw32/bin/../lib/gcc/nios2-elf/4.1.2/../../../../nios2-elf/lib\libc.a(lib_a-locale.o)
                              c:/altera/13.0sp1/nios2eds/bin/gnu/h-i686-mingw32/bin/../lib/gcc/nios2-elf/4.1.2/../../../../nios2-elf/lib\libc.a(lib_a-vfprintf.o) (_localeconv_r)
c:/altera/13.0sp1/nios2eds/bin/gnu/h-i686-mingw32/bin/../lib/gcc/nios2-elf/4.1.2/../../../../nios2-elf/lib\libc.a(lib_a-makebuf.o)
                              c:/altera/13.0sp1/nios2eds/bin/gnu/h-i686-mingw32/bin/../lib/gcc/nios2-elf/4.1.2/../../../../nios2-elf/lib\libc.a(lib_a-wsetup.o) (__smakebuf_r)
c:/altera/13.0sp1/nios2eds/bin/gnu/h-i686-mingw32/bin/../lib/gcc/nios2-elf/4.1.2/../../../../nios2-elf/lib\libc.a(lib_a-mallocr.o)
                              c:/altera/13.0sp1/nios2eds/bin/gnu/h-i686-mingw32/bin/../lib/gcc/nios2-elf/4.1.2/../../../../nios2-elf/lib\libc.a(lib_a-findfp.o) (_malloc_r)
c:/altera/13.0sp1/nios2eds/bin/gnu/h-i686-mingw32/bin/../lib/gcc/nios2-elf/4.1.2/../../../../nios2-elf/lib\libc.a(lib_a-memchr.o)
                              c:/altera/13.0sp1/nios2eds/bin/gnu/h-i686-mingw32/bin/../lib/gcc/nios2-elf/4.1.2/../../../../nios2-elf/lib\libc.a(lib_a-vfprintf.o) (memchr)
c:/altera/13.0sp1/nios2eds/bin/gnu/h-i686-mingw32/bin/../lib/gcc/nios2-elf/4.1.2/../../../../nios2-elf/lib\libc.a(lib_a-memcpy.o)
                              c:/altera/13.0sp1/nios2eds/bin/gnu/h-i686-mingw32/bin/../lib/gcc/nios2-elf/4.1.2/../../../../nios2-elf/lib\libc.a(lib_a-dtoa.o) (memcpy)
c:/altera/13.0sp1/nios2eds/bin/gnu/h-i686-mingw32/bin/../lib/gcc/nios2-elf/4.1.2/../../../../nios2-elf/lib\libc.a(lib_a-memmove.o)
                              c:/altera/13.0sp1/nios2eds/bin/gnu/h-i686-mingw32/bin/../lib/gcc/nios2-elf/4.1.2/../../../../nios2-elf/lib\libc.a(lib_a-fvwrite.o) (memmove)
c:/altera/13.0sp1/nios2eds/bin/gnu/h-i686-mingw32/bin/../lib/gcc/nios2-elf/4.1.2/../../../../nios2-elf/lib\libc.a(lib_a-memset.o)
                              c:/altera/13.0sp1/nios2eds/bin/gnu/h-i686-mingw32/bin/../lib/gcc/nios2-elf/4.1.2/../../../../nios2-elf/lib\libc.a(lib_a-findfp.o) (memset)
c:/altera/13.0sp1/nios2eds/bin/gnu/h-i686-mingw32/bin/../lib/gcc/nios2-elf/4.1.2/../../../../nios2-elf/lib\libc.a(lib_a-mprec.o)
                              c:/altera/13.0sp1/nios2eds/bin/gnu/h-i686-mingw32/bin/../lib/gcc/nios2-elf/4.1.2/../../../../nios2-elf/lib\libc.a(lib_a-dtoa.o) (_Bfree)
c:/altera/13.0sp1/nios2eds/bin/gnu/h-i686-mingw32/bin/../lib/gcc/nios2-elf/4.1.2/../../../../nios2-elf/lib\libc.a(lib_a-reallocr.o)
                              c:/altera/13.0sp1/nios2eds/bin/gnu/h-i686-mingw32/bin/../lib/gcc/nios2-elf/4.1.2/../../../../nios2-elf/lib\libc.a(lib_a-fvwrite.o) (_realloc_r)
c:/altera/13.0sp1/nios2eds/bin/gnu/h-i686-mingw32/bin/../lib/gcc/nios2-elf/4.1.2/../../../../nios2-elf/lib\libc.a(lib_a-s_isinfd.o)
                              c:/altera/13.0sp1/nios2eds/bin/gnu/h-i686-mingw32/bin/../lib/gcc/nios2-elf/4.1.2/../../../../nios2-elf/lib\libc.a(lib_a-vfprintf.o) (__isinfd)
c:/altera/13.0sp1/nios2eds/bin/gnu/h-i686-mingw32/bin/../lib/gcc/nios2-elf/4.1.2/../../../../nios2-elf/lib\libc.a(lib_a-s_isnand.o)
                              c:/altera/13.0sp1/nios2eds/bin/gnu/h-i686-mingw32/bin/../lib/gcc/nios2-elf/4.1.2/../../../../nios2-elf/lib\libc.a(lib_a-vfprintf.o) (__isnand)
c:/altera/13.0sp1/nios2eds/bin/gnu/h-i686-mingw32/bin/../lib/gcc/nios2-elf/4.1.2/../../../../nios2-elf/lib\libc.a(lib_a-sbrkr.o)
                              c:/altera/13.0sp1/nios2eds/bin/gnu/h-i686-mingw32/bin/../lib/gcc/nios2-elf/4.1.2/../../../../nios2-elf/lib\libc.a(lib_a-freer.o) (_sbrk_r)
c:/altera/13.0sp1/nios2eds/bin/gnu/h-i686-mingw32/bin/../lib/gcc/nios2-elf/4.1.2/../../../../nios2-elf/lib\libc.a(lib_a-stdio.o)
                              c:/altera/13.0sp1/nios2eds/bin/gnu/h-i686-mingw32/bin/../lib/gcc/nios2-elf/4.1.2/../../../../nios2-elf/lib\libc.a(lib_a-findfp.o) (__sclose)
c:/altera/13.0sp1/nios2eds/bin/gnu/h-i686-mingw32/bin/../lib/gcc/nios2-elf/4.1.2/../../../../nios2-elf/lib\libc.a(lib_a-strcmp.o)
                              c:/altera/13.0sp1/nios2eds/bin/gnu/h-i686-mingw32/bin/../lib/gcc/nios2-elf/4.1.2/../../../../nios2-elf/lib\libc.a(lib_a-locale.o) (strcmp)
c:/altera/13.0sp1/nios2eds/bin/gnu/h-i686-mingw32/bin/../lib/gcc/nios2-elf/4.1.2/../../../../nios2-elf/lib\libc.a(lib_a-writer.o)
                              c:/altera/13.0sp1/nios2eds/bin/gnu/h-i686-mingw32/bin/../lib/gcc/nios2-elf/4.1.2/../../../../nios2-elf/lib\libc.a(lib_a-stdio.o) (_write_r)
c:/altera/13.0sp1/nios2eds/bin/gnu/h-i686-mingw32/bin/../lib/gcc/nios2-elf/4.1.2/../../../../nios2-elf/lib\libc.a(lib_a-callocr.o)
                              c:/altera/13.0sp1/nios2eds/bin/gnu/h-i686-mingw32/bin/../lib/gcc/nios2-elf/4.1.2/../../../../nios2-elf/lib\libc.a(lib_a-mprec.o) (_calloc_r)
c:/altera/13.0sp1/nios2eds/bin/gnu/h-i686-mingw32/bin/../lib/gcc/nios2-elf/4.1.2/../../../../nios2-elf/lib\libc.a(lib_a-closer.o)
                              c:/altera/13.0sp1/nios2eds/bin/gnu/h-i686-mingw32/bin/../lib/gcc/nios2-elf/4.1.2/../../../../nios2-elf/lib\libc.a(lib_a-stdio.o) (_close_r)
c:/altera/13.0sp1/nios2eds/bin/gnu/h-i686-mingw32/bin/../lib/gcc/nios2-elf/4.1.2/../../../../nios2-elf/lib\libc.a(lib_a-fclose.o)
                              c:/altera/13.0sp1/nios2eds/bin/gnu/h-i686-mingw32/bin/../lib/gcc/nios2-elf/4.1.2/../../../../nios2-elf/lib\libc.a(lib_a-findfp.o) (fclose)
c:/altera/13.0sp1/nios2eds/bin/gnu/h-i686-mingw32/bin/../lib/gcc/nios2-elf/4.1.2/../../../../nios2-elf/lib\libc.a(lib_a-fstatr.o)
                              c:/altera/13.0sp1/nios2eds/bin/gnu/h-i686-mingw32/bin/../lib/gcc/nios2-elf/4.1.2/../../../../nios2-elf/lib\libc.a(lib_a-makebuf.o) (_fstat_r)
c:/altera/13.0sp1/nios2eds/bin/gnu/h-i686-mingw32/bin/../lib/gcc/nios2-elf/4.1.2/../../../../nios2-elf/lib\libc.a(lib_a-int_errno.o)
                              c:/altera/13.0sp1/nios2eds/bin/gnu/h-i686-mingw32/bin/../lib/gcc/nios2-elf/4.1.2/../../../../nios2-elf/lib\libc.a(lib_a-sbrkr.o) (errno)
c:/altera/13.0sp1/nios2eds/bin/gnu/h-i686-mingw32/bin/../lib/gcc/nios2-elf/4.1.2/../../../../nios2-elf/lib\libc.a(lib_a-isattyr.o)
                              c:/altera/13.0sp1/nios2eds/bin/gnu/h-i686-mingw32/bin/../lib/gcc/nios2-elf/4.1.2/../../../../nios2-elf/lib\libc.a(lib_a-makebuf.o) (_isatty_r)
c:/altera/13.0sp1/nios2eds/bin/gnu/h-i686-mingw32/bin/../lib/gcc/nios2-elf/4.1.2/../../../../nios2-elf/lib\libc.a(lib_a-lseekr.o)
                              c:/altera/13.0sp1/nios2eds/bin/gnu/h-i686-mingw32/bin/../lib/gcc/nios2-elf/4.1.2/../../../../nios2-elf/lib\libc.a(lib_a-stdio.o) (_lseek_r)
c:/altera/13.0sp1/nios2eds/bin/gnu/h-i686-mingw32/bin/../lib/gcc/nios2-elf/4.1.2/../../../../nios2-elf/lib\libc.a(lib_a-readr.o)
                              c:/altera/13.0sp1/nios2eds/bin/gnu/h-i686-mingw32/bin/../lib/gcc/nios2-elf/4.1.2/../../../../nios2-elf/lib\libc.a(lib_a-stdio.o) (_read_r)
c:/altera/13.0sp1/nios2eds/bin/gnu/h-i686-mingw32/bin/../lib/gcc/nios2-elf/4.1.2\libgcc.a(_udivdi3.o)
                              c:/altera/13.0sp1/nios2eds/bin/gnu/h-i686-mingw32/bin/../lib/gcc/nios2-elf/4.1.2/../../../../nios2-elf/lib\libc.a(lib_a-vfprintf.o) (__udivdi3)
c:/altera/13.0sp1/nios2eds/bin/gnu/h-i686-mingw32/bin/../lib/gcc/nios2-elf/4.1.2\libgcc.a(_umoddi3.o)
                              c:/altera/13.0sp1/nios2eds/bin/gnu/h-i686-mingw32/bin/../lib/gcc/nios2-elf/4.1.2/../../../../nios2-elf/lib\libc.a(lib_a-vfprintf.o) (__umoddi3)
c:/altera/13.0sp1/nios2eds/bin/gnu/h-i686-mingw32/bin/../lib/gcc/nios2-elf/4.1.2\libgcc.a(_addsub_df.o)
                              c:/altera/13.0sp1/nios2eds/bin/gnu/h-i686-mingw32/bin/../lib/gcc/nios2-elf/4.1.2/../../../../nios2-elf/lib\libc.a(lib_a-dtoa.o) (__subdf3)
c:/altera/13.0sp1/nios2eds/bin/gnu/h-i686-mingw32/bin/../lib/gcc/nios2-elf/4.1.2\libgcc.a(_mul_df.o)
                              c:/altera/13.0sp1/nios2eds/bin/gnu/h-i686-mingw32/bin/../lib/gcc/nios2-elf/4.1.2/../../../../nios2-elf/lib\libc.a(lib_a-dtoa.o) (__muldf3)
c:/altera/13.0sp1/nios2eds/bin/gnu/h-i686-mingw32/bin/../lib/gcc/nios2-elf/4.1.2\libgcc.a(_div_df.o)
                              c:/altera/13.0sp1/nios2eds/bin/gnu/h-i686-mingw32/bin/../lib/gcc/nios2-elf/4.1.2/../../../../nios2-elf/lib\libc.a(lib_a-dtoa.o) (__divdf3)
c:/altera/13.0sp1/nios2eds/bin/gnu/h-i686-mingw32/bin/../lib/gcc/nios2-elf/4.1.2\libgcc.a(_eq_df.o)
                              c:/altera/13.0sp1/nios2eds/bin/gnu/h-i686-mingw32/bin/../lib/gcc/nios2-elf/4.1.2/../../../../nios2-elf/lib\libc.a(lib_a-vfprintf.o) (__eqdf2)
c:/altera/13.0sp1/nios2eds/bin/gnu/h-i686-mingw32/bin/../lib/gcc/nios2-elf/4.1.2\libgcc.a(_ne_df.o)
                              c:/altera/13.0sp1/nios2eds/bin/gnu/h-i686-mingw32/bin/../lib/gcc/nios2-elf/4.1.2/../../../../nios2-elf/lib\libc.a(lib_a-vfprintf.o) (__nedf2)
c:/altera/13.0sp1/nios2eds/bin/gnu/h-i686-mingw32/bin/../lib/gcc/nios2-elf/4.1.2\libgcc.a(_gt_df.o)
                              c:/altera/13.0sp1/nios2eds/bin/gnu/h-i686-mingw32/bin/../lib/gcc/nios2-elf/4.1.2/../../../../nios2-elf/lib\libc.a(lib_a-dtoa.o) (__gtdf2)
c:/altera/13.0sp1/nios2eds/bin/gnu/h-i686-mingw32/bin/../lib/gcc/nios2-elf/4.1.2\libgcc.a(_ge_df.o)
                              c:/altera/13.0sp1/nios2eds/bin/gnu/h-i686-mingw32/bin/../lib/gcc/nios2-elf/4.1.2/../../../../nios2-elf/lib\libc.a(lib_a-dtoa.o) (__gedf2)
c:/altera/13.0sp1/nios2eds/bin/gnu/h-i686-mingw32/bin/../lib/gcc/nios2-elf/4.1.2\libgcc.a(_lt_df.o)
                              c:/altera/13.0sp1/nios2eds/bin/gnu/h-i686-mingw32/bin/../lib/gcc/nios2-elf/4.1.2/../../../../nios2-elf/lib\libc.a(lib_a-vfprintf.o) (__ltdf2)
c:/altera/13.0sp1/nios2eds/bin/gnu/h-i686-mingw32/bin/../lib/gcc/nios2-elf/4.1.2\libgcc.a(_si_to_df.o)
                              c:/altera/13.0sp1/nios2eds/bin/gnu/h-i686-mingw32/bin/../lib/gcc/nios2-elf/4.1.2/../../../../nios2-elf/lib\libc.a(lib_a-dtoa.o) (__floatsidf)
c:/altera/13.0sp1/nios2eds/bin/gnu/h-i686-mingw32/bin/../lib/gcc/nios2-elf/4.1.2\libgcc.a(_df_to_si.o)
                              c:/altera/13.0sp1/nios2eds/bin/gnu/h-i686-mingw32/bin/../lib/gcc/nios2-elf/4.1.2/../../../../nios2-elf/lib\libc.a(lib_a-dtoa.o) (__fixdfsi)
c:/altera/13.0sp1/nios2eds/bin/gnu/h-i686-mingw32/bin/../lib/gcc/nios2-elf/4.1.2\libgcc.a(_thenan_df.o)
                              c:/altera/13.0sp1/nios2eds/bin/gnu/h-i686-mingw32/bin/../lib/gcc/nios2-elf/4.1.2\libgcc.a(_addsub_df.o) (__thenan_df)
c:/altera/13.0sp1/nios2eds/bin/gnu/h-i686-mingw32/bin/../lib/gcc/nios2-elf/4.1.2\libgcc.a(_usi_to_df.o)
                              c:/altera/13.0sp1/nios2eds/bin/gnu/h-i686-mingw32/bin/../lib/gcc/nios2-elf/4.1.2/../../../../nios2-elf/lib\libc.a(lib_a-dtoa.o) (__floatunsidf)
c:/altera/13.0sp1/nios2eds/bin/gnu/h-i686-mingw32/bin/../lib/gcc/nios2-elf/4.1.2\libgcc.a(lib2-divmod.o)
                              c:/altera/13.0sp1/nios2eds/bin/gnu/h-i686-mingw32/bin/../lib/gcc/nios2-elf/4.1.2/../../../../nios2-elf/lib\libc.a(lib_a-vfprintf.o) (__divsi3)
c:/altera/13.0sp1/nios2eds/bin/gnu/h-i686-mingw32/bin/../lib/gcc/nios2-elf/4.1.2\libgcc.a(_muldi3.o)
                              c:/altera/13.0sp1/nios2eds/bin/gnu/h-i686-mingw32/bin/../lib/gcc/nios2-elf/4.1.2\libgcc.a(_mul_df.o) (__muldi3)
c:/altera/13.0sp1/nios2eds/bin/gnu/h-i686-mingw32/bin/../lib/gcc/nios2-elf/4.1.2\libgcc.a(_clz.o)
                              c:/altera/13.0sp1/nios2eds/bin/gnu/h-i686-mingw32/bin/../lib/gcc/nios2-elf/4.1.2\libgcc.a(_udivdi3.o) (__clz_tab)
c:/altera/13.0sp1/nios2eds/bin/gnu/h-i686-mingw32/bin/../lib/gcc/nios2-elf/4.1.2\libgcc.a(_clzsi2.o)
                              c:/altera/13.0sp1/nios2eds/bin/gnu/h-i686-mingw32/bin/../lib/gcc/nios2-elf/4.1.2\libgcc.a(_si_to_df.o) (__clzsi2)
c:/altera/13.0sp1/nios2eds/bin/gnu/h-i686-mingw32/bin/../lib/gcc/nios2-elf/4.1.2\libgcc.a(_pack_df.o)
                              c:/altera/13.0sp1/nios2eds/bin/gnu/h-i686-mingw32/bin/../lib/gcc/nios2-elf/4.1.2\libgcc.a(_addsub_df.o) (__pack_d)
c:/altera/13.0sp1/nios2eds/bin/gnu/h-i686-mingw32/bin/../lib/gcc/nios2-elf/4.1.2\libgcc.a(_unpack_df.o)
                              c:/altera/13.0sp1/nios2eds/bin/gnu/h-i686-mingw32/bin/../lib/gcc/nios2-elf/4.1.2\libgcc.a(_addsub_df.o) (__unpack_d)
c:/altera/13.0sp1/nios2eds/bin/gnu/h-i686-mingw32/bin/../lib/gcc/nios2-elf/4.1.2\libgcc.a(_fpcmp_parts_df.o)
                              c:/altera/13.0sp1/nios2eds/bin/gnu/h-i686-mingw32/bin/../lib/gcc/nios2-elf/4.1.2\libgcc.a(_eq_df.o) (__fpcmp_parts_d)
../Ascensor_bsp/\libucosii_bsp.a(alt_close.o)
                              c:/altera/13.0sp1/nios2eds/bin/gnu/h-i686-mingw32/bin/../lib/gcc/nios2-elf/4.1.2/../../../../nios2-elf/lib\libc.a(lib_a-closer.o) (close)
../Ascensor_bsp/\libucosii_bsp.a(alt_dev.o)
                              ../Ascensor_bsp/\libucosii_bsp.a(alt_close.o) (alt_fd_list)
../Ascensor_bsp/\libucosii_bsp.a(alt_errno.o)
                              ../Ascensor_bsp/\libucosii_bsp.a(alt_close.o) (alt_errno)
../Ascensor_bsp/\libucosii_bsp.a(alt_fstat.o)
                              c:/altera/13.0sp1/nios2eds/bin/gnu/h-i686-mingw32/bin/../lib/gcc/nios2-elf/4.1.2/../../../../nios2-elf/lib\libc.a(lib_a-fstatr.o) (fstat)
../Ascensor_bsp/\libucosii_bsp.a(alt_irq_register.o)
                              obj/default/hello_ucosii.o (alt_irq_register)
../Ascensor_bsp/\libucosii_bsp.a(alt_irq_vars.o)
                              ../Ascensor_bsp/\libucosii_bsp.a(alt_irq_register.o) (alt_irq_active)
../Ascensor_bsp/\libucosii_bsp.a(alt_isatty.o)
                              c:/altera/13.0sp1/nios2eds/bin/gnu/h-i686-mingw32/bin/../lib/gcc/nios2-elf/4.1.2/../../../../nios2-elf/lib\libc.a(lib_a-isattyr.o) (isatty)
../Ascensor_bsp/\libucosii_bsp.a(alt_load.o)
                              ../Ascensor_bsp//obj/HAL/src/crt0.o (alt_load)
../Ascensor_bsp/\libucosii_bsp.a(alt_lseek.o)
                              c:/altera/13.0sp1/nios2eds/bin/gnu/h-i686-mingw32/bin/../lib/gcc/nios2-elf/4.1.2/../../../../nios2-elf/lib\libc.a(lib_a-lseekr.o) (lseek)
../Ascensor_bsp/\libucosii_bsp.a(alt_main.o)
                              ../Ascensor_bsp//obj/HAL/src/crt0.o (alt_main)
../Ascensor_bsp/\libucosii_bsp.a(alt_read.o)
                              c:/altera/13.0sp1/nios2eds/bin/gnu/h-i686-mingw32/bin/../lib/gcc/nios2-elf/4.1.2/../../../../nios2-elf/lib\libc.a(lib_a-readr.o) (read)
../Ascensor_bsp/\libucosii_bsp.a(alt_release_fd.o)
                              ../Ascensor_bsp/\libucosii_bsp.a(alt_close.o) (alt_release_fd)
../Ascensor_bsp/\libucosii_bsp.a(alt_sbrk.o)
                              c:/altera/13.0sp1/nios2eds/bin/gnu/h-i686-mingw32/bin/../lib/gcc/nios2-elf/4.1.2/../../../../nios2-elf/lib\libc.a(lib_a-sbrkr.o) (sbrk)
../Ascensor_bsp/\libucosii_bsp.a(alt_write.o)
                              c:/altera/13.0sp1/nios2eds/bin/gnu/h-i686-mingw32/bin/../lib/gcc/nios2-elf/4.1.2/../../../../nios2-elf/lib\libc.a(lib_a-writer.o) (write)
../Ascensor_bsp/\libucosii_bsp.a(alt_env_lock.o)
                              ../Ascensor_bsp/\libucosii_bsp.a(alt_main.o) (alt_envsem)
../Ascensor_bsp/\libucosii_bsp.a(alt_malloc_lock.o)
                              c:/altera/13.0sp1/nios2eds/bin/gnu/h-i686-mingw32/bin/../lib/gcc/nios2-elf/4.1.2/../../../../nios2-elf/lib\libc.a(lib_a-freer.o) (__malloc_lock)
../Ascensor_bsp/\libucosii_bsp.a(os_core.o)
                              ../Ascensor_bsp/\libucosii_bsp.a(alt_main.o) (OSInit)
../Ascensor_bsp/\libucosii_bsp.a(os_dbg.o)
                              ../Ascensor_bsp/\libucosii_bsp.a(os_core.o) (OSDebugInit)
../Ascensor_bsp/\libucosii_bsp.a(os_flag.o)
                              ../Ascensor_bsp/\libucosii_bsp.a(os_core.o) (OS_FlagInit)
../Ascensor_bsp/\libucosii_bsp.a(os_mbox.o)
                              obj/default/hello_ucosii.o (OSMboxAccept)
../Ascensor_bsp/\libucosii_bsp.a(os_mem.o)
                              ../Ascensor_bsp/\libucosii_bsp.a(os_core.o) (OS_MemInit)
../Ascensor_bsp/\libucosii_bsp.a(os_q.o)
                              ../Ascensor_bsp/\libucosii_bsp.a(os_core.o) (OS_QInit)
../Ascensor_bsp/\libucosii_bsp.a(os_sem.o)
                              obj/default/hello_ucosii.o (OSSemCreate)
../Ascensor_bsp/\libucosii_bsp.a(os_task.o)
                              obj/default/hello_ucosii.o (OSTaskCreateExt)
../Ascensor_bsp/\libucosii_bsp.a(os_time.o)
                              ../Ascensor_bsp/\libucosii_bsp.a(os_core.o) (OSTimeDly)
../Ascensor_bsp/\libucosii_bsp.a(alt_sys_init.o)
                              ../Ascensor_bsp/\libucosii_bsp.a(alt_main.o) (alt_irq_init)
../Ascensor_bsp/\libucosii_bsp.a(altera_avalon_jtag_uart_fd.o)
                              ../Ascensor_bsp/\libucosii_bsp.a(alt_sys_init.o) (altera_avalon_jtag_uart_read_fd)
../Ascensor_bsp/\libucosii_bsp.a(altera_avalon_jtag_uart_init.o)
                              ../Ascensor_bsp/\libucosii_bsp.a(alt_sys_init.o) (altera_avalon_jtag_uart_init)
../Ascensor_bsp/\libucosii_bsp.a(altera_avalon_jtag_uart_ioctl.o)
                              ../Ascensor_bsp/\libucosii_bsp.a(altera_avalon_jtag_uart_fd.o) (altera_avalon_jtag_uart_ioctl)
../Ascensor_bsp/\libucosii_bsp.a(altera_avalon_jtag_uart_read.o)
                              ../Ascensor_bsp/\libucosii_bsp.a(altera_avalon_jtag_uart_fd.o) (altera_avalon_jtag_uart_read)
../Ascensor_bsp/\libucosii_bsp.a(altera_avalon_jtag_uart_write.o)
                              ../Ascensor_bsp/\libucosii_bsp.a(altera_avalon_jtag_uart_fd.o) (altera_avalon_jtag_uart_write)
../Ascensor_bsp/\libucosii_bsp.a(altera_avalon_timer_sc.o)
                              ../Ascensor_bsp/\libucosii_bsp.a(alt_sys_init.o) (alt_avalon_timer_sc_init)
../Ascensor_bsp/\libucosii_bsp.a(altera_up_avalon_character_lcd.o)
                              ../Ascensor_bsp/\libucosii_bsp.a(alt_sys_init.o) (alt_up_character_lcd_init)
../Ascensor_bsp/\libucosii_bsp.a(alt_alarm_start.o)
                              ../Ascensor_bsp/\libucosii_bsp.a(altera_avalon_jtag_uart_init.o) (alt_alarm_start)
../Ascensor_bsp/\libucosii_bsp.a(alt_dcache_flush_all.o)
                              ../Ascensor_bsp/\libucosii_bsp.a(alt_load.o) (alt_dcache_flush_all)
../Ascensor_bsp/\libucosii_bsp.a(alt_dev_llist_insert.o)
                              ../Ascensor_bsp/\libucosii_bsp.a(alt_sys_init.o) (alt_dev_llist_insert)
../Ascensor_bsp/\libucosii_bsp.a(alt_do_ctors.o)
                              ../Ascensor_bsp/\libucosii_bsp.a(alt_main.o) (_do_ctors)
../Ascensor_bsp/\libucosii_bsp.a(alt_do_dtors.o)
                              ../Ascensor_bsp/\libucosii_bsp.a(alt_main.o) (_do_dtors)
../Ascensor_bsp/\libucosii_bsp.a(alt_find_dev.o)
                              ../Ascensor_bsp/\libucosii_bsp.a(altera_up_avalon_character_lcd.o) (alt_find_dev)
../Ascensor_bsp/\libucosii_bsp.a(alt_icache_flush_all.o)
                              ../Ascensor_bsp/\libucosii_bsp.a(alt_load.o) (alt_icache_flush_all)
../Ascensor_bsp/\libucosii_bsp.a(alt_io_redirect.o)
                              ../Ascensor_bsp/\libucosii_bsp.a(alt_main.o) (alt_io_redirect)
../Ascensor_bsp/\libucosii_bsp.a(alt_irq_entry.o)
                              ../Ascensor_bsp/\libucosii_bsp.a(alt_irq_register.o) (alt_irq_entry)
../Ascensor_bsp/\libucosii_bsp.a(alt_irq_handler.o)
                              ../Ascensor_bsp/\libucosii_bsp.a(alt_irq_register.o) (alt_irq_handler)
../Ascensor_bsp/\libucosii_bsp.a(alt_open.o)
                              ../Ascensor_bsp/\libucosii_bsp.a(alt_io_redirect.o) (open)
../Ascensor_bsp/\libucosii_bsp.a(alt_tick.o)
                              ../Ascensor_bsp/\libucosii_bsp.a(altera_avalon_jtag_uart_init.o) (_alt_tick_rate)
../Ascensor_bsp/\libucosii_bsp.a(altera_nios2_qsys_irq.o)
                              ../Ascensor_bsp/\libucosii_bsp.a(alt_sys_init.o) (altera_nios2_qsys_irq_init)
../Ascensor_bsp/\libucosii_bsp.a(os_cpu_a.o)
                              ../Ascensor_bsp/\libucosii_bsp.a(os_core.o) (OSIntCtxSw)
../Ascensor_bsp/\libucosii_bsp.a(os_cpu_c.o)
                              ../Ascensor_bsp/\libucosii_bsp.a(os_task.o) (OSTaskStkInit)
../Ascensor_bsp/\libucosii_bsp.a(alt_exception_entry.o)
                              ../Ascensor_bsp/\libucosii_bsp.a(alt_irq_entry.o) (alt_exception)
../Ascensor_bsp/\libucosii_bsp.a(alt_find_file.o)
                              ../Ascensor_bsp/\libucosii_bsp.a(alt_open.o) (alt_find_file)
../Ascensor_bsp/\libucosii_bsp.a(alt_get_fd.o)
                              ../Ascensor_bsp/\libucosii_bsp.a(alt_open.o) (alt_get_fd)
../Ascensor_bsp/\libucosii_bsp.a(alt_icache_flush.o)
                              ../Ascensor_bsp/\libucosii_bsp.a(alt_icache_flush_all.o) (alt_icache_flush)
c:/altera/13.0sp1/nios2eds/bin/gnu/h-i686-mingw32/bin/../lib/gcc/nios2-elf/4.1.2/../../../../nios2-elf/lib\libc.a(lib_a-atexit.o)
                              ../Ascensor_bsp/\libucosii_bsp.a(alt_main.o) (atexit)
c:/altera/13.0sp1/nios2eds/bin/gnu/h-i686-mingw32/bin/../lib/gcc/nios2-elf/4.1.2/../../../../nios2-elf/lib\libc.a(lib_a-exit.o)
                              ../Ascensor_bsp/\libucosii_bsp.a(alt_main.o) (exit)
c:/altera/13.0sp1/nios2eds/bin/gnu/h-i686-mingw32/bin/../lib/gcc/nios2-elf/4.1.2/../../../../nios2-elf/lib\libc.a(lib_a-memcmp.o)
                              ../Ascensor_bsp/\libucosii_bsp.a(alt_find_dev.o) (memcmp)
c:/altera/13.0sp1/nios2eds/bin/gnu/h-i686-mingw32/bin/../lib/gcc/nios2-elf/4.1.2/../../../../nios2-elf/lib\libc.a(lib_a-__atexit.o)
                              c:/altera/13.0sp1/nios2eds/bin/gnu/h-i686-mingw32/bin/../lib/gcc/nios2-elf/4.1.2/../../../../nios2-elf/lib\libc.a(lib_a-atexit.o) (__register_exitproc)
c:/altera/13.0sp1/nios2eds/bin/gnu/h-i686-mingw32/bin/../lib/gcc/nios2-elf/4.1.2/../../../../nios2-elf/lib\libc.a(lib_a-__call_atexit.o)
                              c:/altera/13.0sp1/nios2eds/bin/gnu/h-i686-mingw32/bin/../lib/gcc/nios2-elf/4.1.2/../../../../nios2-elf/lib\libc.a(lib_a-exit.o) (__call_exitprocs)
c:/altera/13.0sp1/nios2eds/bin/gnu/h-i686-mingw32/bin/../lib/gcc/nios2-elf/4.1.2\libgcc.a(_fixunsdfsi.o)
                              ../Ascensor_bsp/\libucosii_bsp.a(os_time.o) (__fixunsdfsi)
../Ascensor_bsp/\libucosii_bsp.a(alt_exit.o)
                              c:/altera/13.0sp1/nios2eds/bin/gnu/h-i686-mingw32/bin/../lib/gcc/nios2-elf/4.1.2/../../../../nios2-elf/lib\libc.a(lib_a-exit.o) (_exit)

Allocating common symbols
Common symbol       size              file

alt_irq             0x100             ../Ascensor_bsp/\libucosii_bsp.a(alt_irq_handler.o)
control_stk         0x4000            obj/default/hello_ucosii.o
visualizacion_stk   0x4000            obj/default/hello_ucosii.o
OSLockNesting       0x1               ../Ascensor_bsp/\libucosii_bsp.a(os_core.o)
OSRunning           0x1               ../Ascensor_bsp/\libucosii_bsp.a(os_core.o)
mbacciones_seguridad
                    0x4               obj/default/hello_ucosii.o
OSIdleCtr           0x4               ../Ascensor_bsp/\libucosii_bsp.a(os_core.o)
OSPrioHighRdy       0x1               ../Ascensor_bsp/\libucosii_bsp.a(os_core.o)
mbllamadas_control  0x4               obj/default/hello_ucosii.o
errno               0x4               c:/altera/13.0sp1/nios2eds/bin/gnu/h-i686-mingw32/bin/../lib/gcc/nios2-elf/4.1.2/../../../../nios2-elf/lib\libc.a(lib_a-int_errno.o)
alt_heapsem         0x4               ../Ascensor_bsp/\libucosii_bsp.a(alt_malloc_lock.o)
OSFlagTbl           0x370             ../Ascensor_bsp/\libucosii_bsp.a(os_core.o)
OSPrioCur           0x1               ../Ascensor_bsp/\libucosii_bsp.a(os_core.o)
OSTCBList           0x4               ../Ascensor_bsp/\libucosii_bsp.a(os_core.o)
alt_fd_list_lock    0x4               ../Ascensor_bsp/\libucosii_bsp.a(alt_dev.o)
OSMemTbl            0xc30             ../Ascensor_bsp/\libucosii_bsp.a(os_core.o)
OSTickStepState     0x1               ../Ascensor_bsp/\libucosii_bsp.a(os_core.o)
OSTaskStatStk       0x800             ../Ascensor_bsp/\libucosii_bsp.a(os_core.o)
OSCtxSwCtr          0x4               ../Ascensor_bsp/\libucosii_bsp.a(os_core.o)
mbllamadas_visualizacion
                    0x4               obj/default/hello_ucosii.o
mbsensorpuerta_seguridad
                    0x4               obj/default/hello_ucosii.o
OSIdleCtrMax        0x4               ../Ascensor_bsp/\libucosii_bsp.a(os_core.o)
teclado_stk         0x4000            obj/default/hello_ucosii.o
mbsensorplanta_seguridad
                    0x4               obj/default/hello_ucosii.o
OSTCBFreeList       0x4               ../Ascensor_bsp/\libucosii_bsp.a(os_core.o)
OSCPUUsage          0x1               ../Ascensor_bsp/\libucosii_bsp.a(os_core.o)
mbposicion_visualizacion
                    0x4               obj/default/hello_ucosii.o
OSTaskCtr           0x1               ../Ascensor_bsp/\libucosii_bsp.a(os_core.o)
moduloseguridad_stk
                    0x4000            obj/default/hello_ucosii.o
cabina_stk          0x4000            obj/default/hello_ucosii.o
OSMemFreeList       0x4               ../Ascensor_bsp/\libucosii_bsp.a(os_core.o)
mbposicion_control  0x4               obj/default/hello_ucosii.o
OSQTbl              0x1e0             ../Ascensor_bsp/\libucosii_bsp.a(os_core.o)
OSTCBHighRdy        0x4               ../Ascensor_bsp/\libucosii_bsp.a(os_core.o)
key_pressed         0x4               obj/default/hello_ucosii.o
OSQFreeList         0x4               ../Ascensor_bsp/\libucosii_bsp.a(os_core.o)
OSRdyGrp            0x1               ../Ascensor_bsp/\libucosii_bsp.a(os_core.o)
mbacciones_visualizacion
                    0x4               obj/default/hello_ucosii.o
_atexit0            0x190             c:/altera/13.0sp1/nios2eds/bin/gnu/h-i686-mingw32/bin/../lib/gcc/nios2-elf/4.1.2/../../../../nios2-elf/lib\libc.a(lib_a-atexit.o)
mbacciones_cabina   0x4               obj/default/hello_ucosii.o
OSRdyTbl            0x3               ../Ascensor_bsp/\libucosii_bsp.a(os_core.o)
OSEventFreeList     0x4               ../Ascensor_bsp/\libucosii_bsp.a(os_core.o)
mbperturbacion_seguridad
                    0x4               obj/default/hello_ucosii.o
OSIntNesting        0x1               ../Ascensor_bsp/\libucosii_bsp.a(os_core.o)
smSeguridad         0x4               obj/default/hello_ucosii.o
OSTCBCur            0x4               ../Ascensor_bsp/\libucosii_bsp.a(os_core.o)
OSTime              0x4               ../Ascensor_bsp/\libucosii_bsp.a(os_core.o)
OSTaskIdleStk       0x800             ../Ascensor_bsp/\libucosii_bsp.a(os_core.o)
OSEventTbl          0xb40             ../Ascensor_bsp/\libucosii_bsp.a(os_core.o)
OSTCBTbl            0x510             ../Ascensor_bsp/\libucosii_bsp.a(os_core.o)
OSFlagFreeList      0x4               ../Ascensor_bsp/\libucosii_bsp.a(os_core.o)
OSStatRdy           0x1               ../Ascensor_bsp/\libucosii_bsp.a(os_core.o)
OSTCBPrioTbl        0x54              ../Ascensor_bsp/\libucosii_bsp.a(os_core.o)
mbposicion_seguridad
                    0x4               obj/default/hello_ucosii.o
alt_envsem          0x4               ../Ascensor_bsp/\libucosii_bsp.a(alt_env_lock.o)
OSIdleCtrRun        0x4               ../Ascensor_bsp/\libucosii_bsp.a(os_core.o)

Memory Configuration

Name             Origin             Length             Attributes
reset            0x00000000         0x00000020
sdram            0x00000020         0x07ffffe0
onchip_memory    0x08200000         0x00008000
flash_controller 0x08800000         0x00800000
*default*        0x00000000         0xffffffff

Linker script and memory map

LOAD ../Ascensor_bsp//obj/HAL/src/crt0.o
LOAD obj/default/hello_ucosii.o
LOAD c:/altera/13.0sp1/nios2eds/bin/gnu/h-i686-mingw32/bin/../lib/gcc/nios2-elf/4.1.2/../../../../nios2-elf/lib\libstdc++.a
LOAD c:/altera/13.0sp1/nios2eds/bin/gnu/h-i686-mingw32/bin/../lib/gcc/nios2-elf/4.1.2/../../../../nios2-elf/lib\libm.a
LOAD c:/altera/13.0sp1/nios2eds/bin/gnu/h-i686-mingw32/bin/../lib/gcc/nios2-elf/4.1.2\libgcc.a
START GROUP
LOAD c:/altera/13.0sp1/nios2eds/bin/gnu/h-i686-mingw32/bin/../lib/gcc/nios2-elf/4.1.2/../../../../nios2-elf/lib\libc.a
LOAD c:/altera/13.0sp1/nios2eds/bin/gnu/h-i686-mingw32/bin/../lib/gcc/nios2-elf/4.1.2\libgcc.a
LOAD ../Ascensor_bsp/\libucosii_bsp.a
END GROUP
LOAD c:/altera/13.0sp1/nios2eds/bin/gnu/h-i686-mingw32/bin/../lib/gcc/nios2-elf/4.1.2\libgcc.a
                0x00000000                __alt_mem_sdram = 0x0
                0x08200000                __alt_mem_onchip_memory = 0x8200000
                0x08800000                __alt_mem_flash_controller = 0x8800000

.entry          0x00000000       0x20
 *(.entry)
 .entry         0x00000000       0x20 ../Ascensor_bsp//obj/HAL/src/crt0.o
                0x00000000                __reset

.exceptions     0x00000020      0x1a0
                0x00000020                PROVIDE (__ram_exceptions_start, ABSOLUTE (.))
                0x00000020                . = ALIGN (0x20)
 *(.irq)
 *(.exceptions.entry.label)
 .exceptions.entry.label
                0x00000020        0x0 ../Ascensor_bsp/\libucosii_bsp.a(alt_irq_entry.o)
                0x00000020                alt_irq_entry
 .exceptions.entry.label
                0x00000020        0x0 ../Ascensor_bsp/\libucosii_bsp.a(alt_exception_entry.o)
                0x00000020                alt_exception
 *(.exceptions.entry.user)
 *(.exceptions.entry)
 .exceptions.entry
                0x00000020       0x54 ../Ascensor_bsp/\libucosii_bsp.a(alt_exception_entry.o)
 *(.exceptions.irqtest.user)
 *(.exceptions.irqtest)
 .exceptions.irqtest
                0x00000074       0x10 ../Ascensor_bsp/\libucosii_bsp.a(alt_irq_entry.o)
 *(.exceptions.irqhandler.user)
 *(.exceptions.irqhandler)
 .exceptions.irqhandler
                0x00000084        0x4 ../Ascensor_bsp/\libucosii_bsp.a(alt_irq_entry.o)
 *(.exceptions.irqreturn.user)
 *(.exceptions.irqreturn)
 .exceptions.irqreturn
                0x00000088        0x4 ../Ascensor_bsp/\libucosii_bsp.a(alt_irq_entry.o)
 *(.exceptions.notirq.label)
 .exceptions.notirq.label
                0x0000008c        0x0 ../Ascensor_bsp/\libucosii_bsp.a(alt_irq_entry.o)
 *(.exceptions.notirq.user)
 *(.exceptions.notirq)
 .exceptions.notirq
                0x0000008c        0x8 ../Ascensor_bsp/\libucosii_bsp.a(alt_exception_entry.o)
 *(.exceptions.soft.user)
 *(.exceptions.soft)
 *(.exceptions.unknown.user)
 *(.exceptions.unknown)
 .exceptions.unknown
                0x00000094        0x4 ../Ascensor_bsp/\libucosii_bsp.a(alt_exception_entry.o)
 *(.exceptions.exit.label)
 .exceptions.exit.label
                0x00000098        0x0 ../Ascensor_bsp/\libucosii_bsp.a(alt_irq_entry.o)
 .exceptions.exit.label
                0x00000098        0x0 ../Ascensor_bsp/\libucosii_bsp.a(alt_exception_entry.o)
 *(.exceptions.exit.user)
 *(.exceptions.exit)
 .exceptions.exit
                0x00000098       0x54 ../Ascensor_bsp/\libucosii_bsp.a(alt_exception_entry.o)
 *(.exceptions)
 .exceptions    0x000000ec       0xd4 ../Ascensor_bsp/\libucosii_bsp.a(alt_irq_handler.o)
                0x000000ec                alt_irq_handler
                0x000001c0                PROVIDE (__ram_exceptions_end, ABSOLUTE (.))
                0x00000020                PROVIDE (__flash_exceptions_start, LOADADDR (.exceptions))

.text           0x000001c0    0x17208
                0x000001c0                PROVIDE (stext, ABSOLUTE (.))
 *(.interp)
 *(.hash)
 *(.dynsym)
 *(.dynstr)
 *(.gnu.version)
 *(.gnu.version_d)
 *(.gnu.version_r)
 *(.rel.init)
 *(.rela.init)
 *(.rel.text .rel.text.* .rel.gnu.linkonce.t.*)
 *(.rela.text .rela.text.* .rela.gnu.linkonce.t.*)
 *(.rel.fini)
 *(.rela.fini)
 *(.rel.rodata .rel.rodata.* .rel.gnu.linkonce.r.*)
 *(.rela.rodata .rela.rodata.* .rela.gnu.linkonce.r.*)
 *(.rel.data .rel.data.* .rel.gnu.linkonce.d.*)
 *(.rela.data .rela.data.* .rela.gnu.linkonce.d.*)
 *(.rel.tdata .rel.tdata.* .rel.gnu.linkonce.td.*)
 *(.rela.tdata .rela.tdata.* .rela.gnu.linkonce.td.*)
 *(.rel.tbss .rel.tbss.* .rel.gnu.linkonce.tb.*)
 *(.rela.tbss .rela.tbss.* .rela.gnu.linkonce.tb.*)
 *(.rel.ctors)
 *(.rela.ctors)
 *(.rel.dtors)
 *(.rela.dtors)
 *(.rel.got)
 *(.rela.got)
 *(.rel.sdata .rel.sdata.* .rel.gnu.linkonce.s.*)
 *(.rela.sdata .rela.sdata.* .rela.gnu.linkonce.s.*)
 *(.rel.sbss .rel.sbss.* .rel.gnu.linkonce.sb.*)
 *(.rela.sbss .rela.sbss.* .rela.gnu.linkonce.sb.*)
 *(.rel.sdata2 .rel.sdata2.* .rel.gnu.linkonce.s2.*)
 *(.rela.sdata2 .rela.sdata2.* .rela.gnu.linkonce.s2.*)
 *(.rel.sbss2 .rel.sbss2.* .rel.gnu.linkonce.sb2.*)
 *(.rela.sbss2 .rela.sbss2.* .rela.gnu.linkonce.sb2.*)
 *(.rel.bss .rel.bss.* .rel.gnu.linkonce.b.*)
 *(.rela.bss .rela.bss.* .rela.gnu.linkonce.b.*)
 *(.rel.plt)
 *(.rela.plt)
 *(.rel.dyn)
 *(.init)
 *(.plt)
 *(.text .stub .text.* .gnu.linkonce.t.*)
 .text          0x000001c0       0x3c ../Ascensor_bsp//obj/HAL/src/crt0.o
                0x000001c0                _start
 .text          0x000001fc      0xf10 obj/default/hello_ucosii.o
                0x000001fc                control
                0x000004fc                cabina
                0x0000075c                moduloseguridad
                0x00000858                teclado
                0x00000920                visualizacion
                0x00000d14                LCD_cursor
                0x00000d80                LCD_text
                0x00000dec                LCD_cursor_off
                0x00000e20                pushbutton_ISR
                0x00000ecc                main
 .text          0x0000110c       0x78 c:/altera/13.0sp1/nios2eds/bin/gnu/h-i686-mingw32/bin/../lib/gcc/nios2-elf/4.1.2/../../../../nios2-elf/lib\libc.a(lib_a-printf.o)
                0x0000110c                printf
                0x00001150                _printf_r
 .text          0x00001184       0xb4 c:/altera/13.0sp1/nios2eds/bin/gnu/h-i686-mingw32/bin/../lib/gcc/nios2-elf/4.1.2/../../../../nios2-elf/lib\libc.a(lib_a-puts.o)
                0x00001184                _puts_r
                0x00001224                puts
 .text          0x00001238       0xd4 c:/altera/13.0sp1/nios2eds/bin/gnu/h-i686-mingw32/bin/../lib/gcc/nios2-elf/4.1.2/../../../../nios2-elf/lib\libc.a(lib_a-sprintf.o)
                0x00001238                sprintf
                0x000012ac                _sprintf_r
 .text          0x0000130c       0x74 c:/altera/13.0sp1/nios2eds/bin/gnu/h-i686-mingw32/bin/../lib/gcc/nios2-elf/4.1.2/../../../../nios2-elf/lib\libc.a(lib_a-strlen.o)
                0x0000130c                strlen
 .text          0x00001380     0x1f28 c:/altera/13.0sp1/nios2eds/bin/gnu/h-i686-mingw32/bin/../lib/gcc/nios2-elf/4.1.2/../../../../nios2-elf/lib\libc.a(lib_a-vfprintf.o)
                0x000013d8                ___vfprintf_internal_r
                0x00003284                __vfprintf_internal
 .text          0x000032a8      0x13c c:/altera/13.0sp1/nios2eds/bin/gnu/h-i686-mingw32/bin/../lib/gcc/nios2-elf/4.1.2/../../../../nios2-elf/lib\libc.a(lib_a-wsetup.o)
                0x000032a8                __swsetup_r
 .text          0x000033e4     0x17cc c:/altera/13.0sp1/nios2eds/bin/gnu/h-i686-mingw32/bin/../lib/gcc/nios2-elf/4.1.2/../../../../nios2-elf/lib\libc.a(lib_a-dtoa.o)
                0x000035fc                _dtoa_r
 .text          0x00004bb0      0x230 c:/altera/13.0sp1/nios2eds/bin/gnu/h-i686-mingw32/bin/../lib/gcc/nios2-elf/4.1.2/../../../../nios2-elf/lib\libc.a(lib_a-fflush.o)
                0x00004bb0                _fflush_r
                0x00004dac                fflush
 .text          0x00004de0      0x2c0 c:/altera/13.0sp1/nios2eds/bin/gnu/h-i686-mingw32/bin/../lib/gcc/nios2-elf/4.1.2/../../../../nios2-elf/lib\libc.a(lib_a-findfp.o)
                0x00004e38                __sfp_lock_acquire
                0x00004e3c                __sfp_lock_release
                0x00004e40                __sinit_lock_acquire
                0x00004e44                __sinit_lock_release
                0x00004e48                __sinit
                0x00004efc                __fp_unlock_all
                0x00004f14                __fp_lock_all
                0x00004f2c                _cleanup_r
                0x00004f38                _cleanup
                0x00004f48                __sfmoreglue
                0x00004fb0                __sfp
 .text          0x000050a0      0x440 c:/altera/13.0sp1/nios2eds/bin/gnu/h-i686-mingw32/bin/../lib/gcc/nios2-elf/4.1.2/../../../../nios2-elf/lib\libc.a(lib_a-freer.o)
                0x000050a0                _malloc_trim_r
                0x000051cc                _free_r
 .text          0x000054e0      0x49c c:/altera/13.0sp1/nios2eds/bin/gnu/h-i686-mingw32/bin/../lib/gcc/nios2-elf/4.1.2/../../../../nios2-elf/lib\libc.a(lib_a-fvwrite.o)
                0x000054e0                __sfvwrite_r
 .text          0x0000597c      0x180 c:/altera/13.0sp1/nios2eds/bin/gnu/h-i686-mingw32/bin/../lib/gcc/nios2-elf/4.1.2/../../../../nios2-elf/lib\libc.a(lib_a-fwalk.o)
                0x0000597c                _fwalk_reent
                0x00005a44                _fwalk
 .text          0x00005afc        0x0 c:/altera/13.0sp1/nios2eds/bin/gnu/h-i686-mingw32/bin/../lib/gcc/nios2-elf/4.1.2/../../../../nios2-elf/lib\libc.a(lib_a-impure.o)
 .text          0x00005afc       0xc4 c:/altera/13.0sp1/nios2eds/bin/gnu/h-i686-mingw32/bin/../lib/gcc/nios2-elf/4.1.2/../../../../nios2-elf/lib\libc.a(lib_a-locale.o)
                0x00005afc                __locale_charset
                0x00005b04                _localeconv_r
                0x00005b10                localeconv
                0x00005b20                _setlocale_r
                0x00005ba4                setlocale
 .text          0x00005bc0      0x194 c:/altera/13.0sp1/nios2eds/bin/gnu/h-i686-mingw32/bin/../lib/gcc/nios2-elf/4.1.2/../../../../nios2-elf/lib\libc.a(lib_a-makebuf.o)
                0x00005bc0                __smakebuf_r
 .text          0x00005d54      0x740 c:/altera/13.0sp1/nios2eds/bin/gnu/h-i686-mingw32/bin/../lib/gcc/nios2-elf/4.1.2/../../../../nios2-elf/lib\libc.a(lib_a-mallocr.o)
                0x00005d54                _malloc_r
 .text          0x00006494       0xe4 c:/altera/13.0sp1/nios2eds/bin/gnu/h-i686-mingw32/bin/../lib/gcc/nios2-elf/4.1.2/../../../../nios2-elf/lib\libc.a(lib_a-memchr.o)
                0x00006494                memchr
 .text          0x00006578       0xa0 c:/altera/13.0sp1/nios2eds/bin/gnu/h-i686-mingw32/bin/../lib/gcc/nios2-elf/4.1.2/../../../../nios2-elf/lib\libc.a(lib_a-memcpy.o)
                0x00006578                memcpy
 .text          0x00006618       0xe0 c:/altera/13.0sp1/nios2eds/bin/gnu/h-i686-mingw32/bin/../lib/gcc/nios2-elf/4.1.2/../../../../nios2-elf/lib\libc.a(lib_a-memmove.o)
                0x00006618                memmove
 .text          0x000066f8       0x98 c:/altera/13.0sp1/nios2eds/bin/gnu/h-i686-mingw32/bin/../lib/gcc/nios2-elf/4.1.2/../../../../nios2-elf/lib\libc.a(lib_a-memset.o)
                0x000066f8                memset
 .text          0x00006790      0xff4 c:/altera/13.0sp1/nios2eds/bin/gnu/h-i686-mingw32/bin/../lib/gcc/nios2-elf/4.1.2/../../../../nios2-elf/lib\libc.a(lib_a-mprec.o)
                0x00006790                _Bfree
                0x000067b8                __hi0bits
                0x00006828                __lo0bits
                0x000068ec                __mcmp
                0x0000694c                __ulp
                0x000069cc                __b2d
                0x00006aec                __ratio
                0x00006b9c                _mprec_log10
                0x00006c30                __copybits
                0x00006c88                __any_on
                0x00006d10                _Balloc
                0x00006dcc                __d2b
                0x00006f48                __mdiff
                0x000070d4                __lshift
                0x00007220                __multiply
                0x00007408                __i2b
                0x00007444                __multadd
                0x00007544                __pow5mult
                0x00007664                __s2b
 .text          0x00007784      0x5f4 c:/altera/13.0sp1/nios2eds/bin/gnu/h-i686-mingw32/bin/../lib/gcc/nios2-elf/4.1.2/../../../../nios2-elf/lib\libc.a(lib_a-reallocr.o)
                0x00007784                _realloc_r
 .text          0x00007d78       0x40 c:/altera/13.0sp1/nios2eds/bin/gnu/h-i686-mingw32/bin/../lib/gcc/nios2-elf/4.1.2/../../../../nios2-elf/lib\libc.a(lib_a-s_isinfd.o)
                0x00007d78                __isinfd
 .text          0x00007db8       0x30 c:/altera/13.0sp1/nios2eds/bin/gnu/h-i686-mingw32/bin/../lib/gcc/nios2-elf/4.1.2/../../../../nios2-elf/lib\libc.a(lib_a-s_isnand.o)
                0x00007db8                __isnand
 .text          0x00007de8       0x70 c:/altera/13.0sp1/nios2eds/bin/gnu/h-i686-mingw32/bin/../lib/gcc/nios2-elf/4.1.2/../../../../nios2-elf/lib\libc.a(lib_a-sbrkr.o)
                0x00007de8                _sbrk_r
 .text          0x00007e58      0x14c c:/altera/13.0sp1/nios2eds/bin/gnu/h-i686-mingw32/bin/../lib/gcc/nios2-elf/4.1.2/../../../../nios2-elf/lib\libc.a(lib_a-stdio.o)
                0x00007e58                __sclose
                0x00007e60                __sseek
                0x00007ec8                __swrite
                0x00007f44                __sread
 .text          0x00007fa4       0xbc c:/altera/13.0sp1/nios2eds/bin/gnu/h-i686-mingw32/bin/../lib/gcc/nios2-elf/4.1.2/../../../../nios2-elf/lib\libc.a(lib_a-strcmp.o)
                0x00007fa4                strcmp
 .text          0x00008060       0x78 c:/altera/13.0sp1/nios2eds/bin/gnu/h-i686-mingw32/bin/../lib/gcc/nios2-elf/4.1.2/../../../../nios2-elf/lib\libc.a(lib_a-writer.o)
                0x00008060                _write_r
 .text          0x000080d8       0xb4 c:/altera/13.0sp1/nios2eds/bin/gnu/h-i686-mingw32/bin/../lib/gcc/nios2-elf/4.1.2/../../../../nios2-elf/lib\libc.a(lib_a-callocr.o)
                0x000080d8                _calloc_r
 .text          0x0000818c       0x70 c:/altera/13.0sp1/nios2eds/bin/gnu/h-i686-mingw32/bin/../lib/gcc/nios2-elf/4.1.2/../../../../nios2-elf/lib\libc.a(lib_a-closer.o)
                0x0000818c                _close_r
 .text          0x000081fc      0x124 c:/altera/13.0sp1/nios2eds/bin/gnu/h-i686-mingw32/bin/../lib/gcc/nios2-elf/4.1.2/../../../../nios2-elf/lib\libc.a(lib_a-fclose.o)
                0x000081fc                _fclose_r
                0x0000830c                fclose
 .text          0x00008320       0x74 c:/altera/13.0sp1/nios2eds/bin/gnu/h-i686-mingw32/bin/../lib/gcc/nios2-elf/4.1.2/../../../../nios2-elf/lib\libc.a(lib_a-fstatr.o)
                0x00008320                _fstat_r
 .text          0x00008394        0x0 c:/altera/13.0sp1/nios2eds/bin/gnu/h-i686-mingw32/bin/../lib/gcc/nios2-elf/4.1.2/../../../../nios2-elf/lib\libc.a(lib_a-int_errno.o)
 .text          0x00008394       0x70 c:/altera/13.0sp1/nios2eds/bin/gnu/h-i686-mingw32/bin/../lib/gcc/nios2-elf/4.1.2/../../../../nios2-elf/lib\libc.a(lib_a-isattyr.o)
                0x00008394                _isatty_r
 .text          0x00008404       0x78 c:/altera/13.0sp1/nios2eds/bin/gnu/h-i686-mingw32/bin/../lib/gcc/nios2-elf/4.1.2/../../../../nios2-elf/lib\libc.a(lib_a-lseekr.o)
                0x00008404                _lseek_r
 .text          0x0000847c       0x78 c:/altera/13.0sp1/nios2eds/bin/gnu/h-i686-mingw32/bin/../lib/gcc/nios2-elf/4.1.2/../../../../nios2-elf/lib\libc.a(lib_a-readr.o)
                0x0000847c                _read_r
 .text          0x000084f4      0x5dc c:/altera/13.0sp1/nios2eds/bin/gnu/h-i686-mingw32/bin/../lib/gcc/nios2-elf/4.1.2\libgcc.a(_udivdi3.o)
                0x000084f4                __udivdi3
 .text          0x00008ad0      0x5b0 c:/altera/13.0sp1/nios2eds/bin/gnu/h-i686-mingw32/bin/../lib/gcc/nios2-elf/4.1.2\libgcc.a(_umoddi3.o)
                0x00008ad0                __umoddi3
 .text          0x00009080      0x504 c:/altera/13.0sp1/nios2eds/bin/gnu/h-i686-mingw32/bin/../lib/gcc/nios2-elf/4.1.2\libgcc.a(_addsub_df.o)
                0x00009490                __subdf3
                0x00009510                __adddf3
 .text          0x00009584      0x3c4 c:/altera/13.0sp1/nios2eds/bin/gnu/h-i686-mingw32/bin/../lib/gcc/nios2-elf/4.1.2\libgcc.a(_mul_df.o)
                0x00009584                __muldf3
 .text          0x00009948      0x258 c:/altera/13.0sp1/nios2eds/bin/gnu/h-i686-mingw32/bin/../lib/gcc/nios2-elf/4.1.2\libgcc.a(_div_df.o)
                0x00009948                __divdf3
 .text          0x00009ba0       0x88 c:/altera/13.0sp1/nios2eds/bin/gnu/h-i686-mingw32/bin/../lib/gcc/nios2-elf/4.1.2\libgcc.a(_eq_df.o)
                0x00009ba0                __eqdf2
 .text          0x00009c28       0x88 c:/altera/13.0sp1/nios2eds/bin/gnu/h-i686-mingw32/bin/../lib/gcc/nios2-elf/4.1.2\libgcc.a(_ne_df.o)
                0x00009c28                __nedf2
 .text          0x00009cb0       0x88 c:/altera/13.0sp1/nios2eds/bin/gnu/h-i686-mingw32/bin/../lib/gcc/nios2-elf/4.1.2\libgcc.a(_gt_df.o)
                0x00009cb0                __gtdf2
 .text          0x00009d38       0x88 c:/altera/13.0sp1/nios2eds/bin/gnu/h-i686-mingw32/bin/../lib/gcc/nios2-elf/4.1.2\libgcc.a(_ge_df.o)
                0x00009d38                __gedf2
 .text          0x00009dc0       0x88 c:/altera/13.0sp1/nios2eds/bin/gnu/h-i686-mingw32/bin/../lib/gcc/nios2-elf/4.1.2\libgcc.a(_lt_df.o)
                0x00009dc0                __ltdf2
 .text          0x00009e48       0xf8 c:/altera/13.0sp1/nios2eds/bin/gnu/h-i686-mingw32/bin/../lib/gcc/nios2-elf/4.1.2\libgcc.a(_si_to_df.o)
                0x00009e48                __floatsidf
 .text          0x00009f40       0xd8 c:/altera/13.0sp1/nios2eds/bin/gnu/h-i686-mingw32/bin/../lib/gcc/nios2-elf/4.1.2\libgcc.a(_df_to_si.o)
                0x00009f40                __fixdfsi
 .text          0x0000a018        0x0 c:/altera/13.0sp1/nios2eds/bin/gnu/h-i686-mingw32/bin/../lib/gcc/nios2-elf/4.1.2\libgcc.a(_thenan_df.o)
 .text          0x0000a018      0x194 c:/altera/13.0sp1/nios2eds/bin/gnu/h-i686-mingw32/bin/../lib/gcc/nios2-elf/4.1.2\libgcc.a(_usi_to_df.o)
                0x0000a018                __floatunsidf
 .text          0x0000a1ac      0x14c c:/altera/13.0sp1/nios2eds/bin/gnu/h-i686-mingw32/bin/../lib/gcc/nios2-elf/4.1.2\libgcc.a(lib2-divmod.o)
                0x0000a228                __divsi3
                0x0000a288                __modsi3
                0x0000a2e8                __udivsi3
                0x0000a2f0                __umodsi3
 .text          0x0000a2f8       0x98 c:/altera/13.0sp1/nios2eds/bin/gnu/h-i686-mingw32/bin/../lib/gcc/nios2-elf/4.1.2\libgcc.a(_muldi3.o)
                0x0000a2f8                __muldi3
 .text          0x0000a390        0x0 c:/altera/13.0sp1/nios2eds/bin/gnu/h-i686-mingw32/bin/../lib/gcc/nios2-elf/4.1.2\libgcc.a(_clz.o)
 .text          0x0000a390       0x80 c:/altera/13.0sp1/nios2eds/bin/gnu/h-i686-mingw32/bin/../lib/gcc/nios2-elf/4.1.2\libgcc.a(_clzsi2.o)
                0x0000a390                __clzsi2
 .text          0x0000a410      0x314 c:/altera/13.0sp1/nios2eds/bin/gnu/h-i686-mingw32/bin/../lib/gcc/nios2-elf/4.1.2\libgcc.a(_pack_df.o)
                0x0000a410                __pack_d
 .text          0x0000a724      0x138 c:/altera/13.0sp1/nios2eds/bin/gnu/h-i686-mingw32/bin/../lib/gcc/nios2-elf/4.1.2\libgcc.a(_unpack_df.o)
                0x0000a724                __unpack_d
 .text          0x0000a85c       0xc8 c:/altera/13.0sp1/nios2eds/bin/gnu/h-i686-mingw32/bin/../lib/gcc/nios2-elf/4.1.2\libgcc.a(_fpcmp_parts_df.o)
                0x0000a85c                __fpcmp_parts_d
 .text          0x0000a924      0x15c ../Ascensor_bsp/\libucosii_bsp.a(alt_close.o)
                0x0000a924                close
 .text          0x0000aa80       0x2c ../Ascensor_bsp/\libucosii_bsp.a(alt_dev.o)
 .text          0x0000aaac        0x0 ../Ascensor_bsp/\libucosii_bsp.a(alt_errno.o)
 .text          0x0000aaac      0x134 ../Ascensor_bsp/\libucosii_bsp.a(alt_fstat.o)
                0x0000aaac                fstat
 .text          0x0000abe0      0x1c0 ../Ascensor_bsp/\libucosii_bsp.a(alt_irq_register.o)
                0x0000abe0                alt_irq_register
 .text          0x0000ada0        0x0 ../Ascensor_bsp/\libucosii_bsp.a(alt_irq_vars.o)
 .text          0x0000ada0      0x120 ../Ascensor_bsp/\libucosii_bsp.a(alt_isatty.o)
                0x0000ada0                isatty
 .text          0x0000aec0       0xec ../Ascensor_bsp/\libucosii_bsp.a(alt_load.o)
                0x0000aec0                alt_load
 .text          0x0000afac      0x150 ../Ascensor_bsp/\libucosii_bsp.a(alt_lseek.o)
                0x0000afac                lseek
 .text          0x0000b0fc       0xc8 ../Ascensor_bsp/\libucosii_bsp.a(alt_main.o)
                0x0000b0fc                alt_main
 .text          0x0000b1c4      0x180 ../Ascensor_bsp/\libucosii_bsp.a(alt_read.o)
                0x0000b1c4                read
 .text          0x0000b344       0x60 ../Ascensor_bsp/\libucosii_bsp.a(alt_release_fd.o)
                0x0000b344                alt_release_fd
 .text          0x0000b3a4       0xbc ../Ascensor_bsp/\libucosii_bsp.a(alt_sbrk.o)
                0x0000b3a4                sbrk
 .text          0x0000b460      0x180 ../Ascensor_bsp/\libucosii_bsp.a(alt_write.o)
                0x0000b460                write
 .text          0x0000b5e0      0x108 ../Ascensor_bsp/\libucosii_bsp.a(alt_env_lock.o)
                0x0000b5e0                __env_lock
                0x0000b68c                __env_unlock
 .text          0x0000b6e8      0x1d8 ../Ascensor_bsp/\libucosii_bsp.a(alt_malloc_lock.o)
                0x0000b6e8                __malloc_lock
                0x0000b7f0                __malloc_unlock
 .text          0x0000b8c0     0x2128 ../Ascensor_bsp/\libucosii_bsp.a(os_core.o)
                0x0000b8c0                OSEventNameGet
                0x0000b9f0                OSEventNameSet
                0x0000bb34                OSEventPendMulti
                0x0000c1e8                OSInit
                0x0000c23c                OSIntEnter
                0x0000c2b8                OSIntExit
                0x0000c3b8                OSSchedLock
                0x0000c444                OSSchedUnlock
                0x0000c528                OSStart
                0x0000c598                OSStatInit
                0x0000c644                OSTimeTick
                0x0000c884                OSVersion
                0x0000c8a4                OS_Dummy
                0x0000c8c0                OS_EventTaskRdy
                0x0000ca54                OS_EventTaskWait
                0x0000cb64                OS_EventTaskWaitMulti
                0x0000ccb8                OS_EventTaskRemove
                0x0000cd70                OS_EventTaskRemoveMulti
                0x0000ce74                OS_EventWaitListInit
                0x0000d240                OS_MemClr
                0x0000d294                OS_MemCopy
                0x0000d300                OS_Sched
                0x0000d444                OS_StrCopy
                0x0000d4c4                OS_StrLen
                0x0000d51c                OS_TaskIdle
                0x0000d578                OS_TaskStat
                0x0000d640                OS_TaskStatStkChk
                0x0000d708                OS_TCBInit
 .text          0x0000d9e8      0x18c ../Ascensor_bsp/\libucosii_bsp.a(os_dbg.o)
                0x0000d9e8                OSDebugInit
 .text          0x0000db74     0x193c ../Ascensor_bsp/\libucosii_bsp.a(os_flag.o)
                0x0000db74                OSFlagAccept
                0x0000dea8                OSFlagCreate
                0x0000dfe4                OSFlagDel
                0x0000e28c                OSFlagNameGet
                0x0000e3d0                OSFlagNameSet
                0x0000e524                OSFlagPend
                0x0000eb68                OSFlagPendGetFlagsRdy
                0x0000ebd0                OSFlagPost
                0x0000ef78                OSFlagQuery
                0x0000f210                OS_FlagInit
                0x0000f404                OS_FlagUnlink
 .text          0x0000f4b0      0xc8c ../Ascensor_bsp/\libucosii_bsp.a(os_mbox.o)
                0x0000f4b0                OSMboxAccept
                0x0000f554                OSMboxCreate
                0x0000f668                OSMboxDel
                0x0000f908                OSMboxPend
                0x0000fbd0                OSMboxPendAbort
                0x0000fd4c                OSMboxPost
                0x0000fe80                OSMboxPostOpt
                0x0001000c                OSMboxQuery
 .text          0x0001013c      0x808 ../Ascensor_bsp/\libucosii_bsp.a(os_mem.o)
                0x0001013c                OSMemCreate
                0x00010358                OSMemGet
                0x0001045c                OSMemNameGet
                0x00010568                OSMemNameSet
                0x00010688                OSMemPut
                0x00010778                OSMemQuery
                0x00010874                OS_MemInit
 .text          0x00010944     0x1334 ../Ascensor_bsp/\libucosii_bsp.a(os_q.o)
                0x00010944                OSQAccept
                0x00010a98                OSQCreate
                0x00010cac                OSQDel
                0x00010fac                OSQFlush
                0x00011074                OSQPend
                0x00011394                OSQPendAbort
                0x00011510                OSQPost
                0x00011690                OSQPostFront
                0x00011818                OSQPostOpt
                0x00011a4c                OSQQuery
                0x00011bcc                OS_QInit
 .text          0x00011c78      0xbc8 ../Ascensor_bsp/\libucosii_bsp.a(os_sem.o)
                0x00011c78                OSSemAccept
                0x00011d38                OSSemCreate
                0x00011e4c                OSSemDel
                0x000120ec                OSSemPend
                0x00012368                OSSemPendAbort
                0x000124e4                OSSemPost
                0x0001260c                OSSemQuery
                0x0001273c                OSSemSet
 .text          0x00012840     0x1a40 ../Ascensor_bsp/\libucosii_bsp.a(os_task.o)
                0x00012840                OSTaskChangePrio
                0x00012db4                OSTaskCreate
                0x00012f88                OSTaskCreateExt
                0x00013188                OSTaskDel
                0x00013594                OSTaskDelReq
                0x00013704                OSTaskNameGet
                0x000138bc                OSTaskNameSet
                0x00013a80                OSTaskResume
                0x00013c98                OSTaskStkChk
                0x00013e94                OSTaskSuspend
                0x000140c0                OSTaskQuery
                0x00014204                OS_TaskStkClr
 .text          0x00014280      0x66c ../Ascensor_bsp/\libucosii_bsp.a(os_time.o)
                0x00014280                OSTimeDly
                0x000143cc                OSTimeDlyHMSM
                0x00014614                OSTimeDlyResume
                0x00014824                OSTimeGet
                0x00014888                OSTimeSet
 .text          0x000148ec      0x138 ../Ascensor_bsp/\libucosii_bsp.a(alt_sys_init.o)
                0x000148ec                alt_irq_init
                0x00014920                alt_sys_init
 .text          0x00014a24      0x148 ../Ascensor_bsp/\libucosii_bsp.a(altera_avalon_jtag_uart_fd.o)
                0x00014a24                altera_avalon_jtag_uart_read_fd
                0x00014a7c                altera_avalon_jtag_uart_write_fd
                0x00014ad4                altera_avalon_jtag_uart_close_fd
                0x00014b1c                altera_avalon_jtag_uart_ioctl_fd
 .text          0x00014b6c      0x580 ../Ascensor_bsp/\libucosii_bsp.a(altera_avalon_jtag_uart_init.o)
                0x00014b6c                altera_avalon_jtag_uart_init
                0x00015078                altera_avalon_jtag_uart_close
 .text          0x000150ec       0xf4 ../Ascensor_bsp/\libucosii_bsp.a(altera_avalon_jtag_uart_ioctl.o)
                0x000150ec                altera_avalon_jtag_uart_ioctl
 .text          0x000151e0      0x2c0 ../Ascensor_bsp/\libucosii_bsp.a(altera_avalon_jtag_uart_read.o)
                0x000151e0                altera_avalon_jtag_uart_read
 .text          0x000154a0      0x2dc ../Ascensor_bsp/\libucosii_bsp.a(altera_avalon_jtag_uart_write.o)
                0x000154a0                altera_avalon_jtag_uart_write
 .text          0x0001577c       0xfc ../Ascensor_bsp/\libucosii_bsp.a(altera_avalon_timer_sc.o)
                0x000157f0                alt_avalon_timer_sc_init
 .text          0x00015878      0x530 ../Ascensor_bsp/\libucosii_bsp.a(altera_up_avalon_character_lcd.o)
                0x00015878                get_DDRAM_addr
                0x000158f4                alt_up_character_lcd_send_cmd
                0x00015928                alt_up_character_lcd_init
                0x0001595c                alt_up_character_lcd_open_dev
                0x0001599c                alt_up_character_lcd_write
                0x00015a14                alt_up_character_lcd_string
                0x00015a8c                alt_up_character_lcd_write_fd
                0x00015ad8                alt_up_character_lcd_set_cursor_pos
                0x00015b50                alt_up_character_lcd_shift_cursor
                0x00015c00                alt_up_character_lcd_shift_display
                0x00015cb0                alt_up_character_lcd_erase_pos
                0x00015d40                alt_up_character_lcd_cursor_off
                0x00015d74                alt_up_character_lcd_cursor_blink_on
 .text          0x00015da8      0x154 ../Ascensor_bsp/\libucosii_bsp.a(alt_alarm_start.o)
                0x00015da8                alt_alarm_start
 .text          0x00015efc       0x1c ../Ascensor_bsp/\libucosii_bsp.a(alt_dcache_flush_all.o)
                0x00015efc                alt_dcache_flush_all
 .text          0x00015f18      0x114 ../Ascensor_bsp/\libucosii_bsp.a(alt_dev_llist_insert.o)
                0x00015f18                alt_dev_llist_insert
 .text          0x0001602c       0x64 ../Ascensor_bsp/\libucosii_bsp.a(alt_do_ctors.o)
                0x0001602c                _do_ctors
 .text          0x00016090       0x64 ../Ascensor_bsp/\libucosii_bsp.a(alt_do_dtors.o)
                0x00016090                _do_dtors
 .text          0x000160f4       0x94 ../Ascensor_bsp/\libucosii_bsp.a(alt_find_dev.o)
                0x000160f4                alt_find_dev
 .text          0x00016188       0x30 ../Ascensor_bsp/\libucosii_bsp.a(alt_icache_flush_all.o)
                0x00016188                alt_icache_flush_all
 .text          0x000161b8      0x13c ../Ascensor_bsp/\libucosii_bsp.a(alt_io_redirect.o)
                0x0001627c                alt_io_redirect
 .text          0x000162f4        0x0 ../Ascensor_bsp/\libucosii_bsp.a(alt_irq_entry.o)
 .text          0x000162f4        0x0 ../Ascensor_bsp/\libucosii_bsp.a(alt_irq_handler.o)
 .text          0x000162f4      0x2c4 ../Ascensor_bsp/\libucosii_bsp.a(alt_open.o)
                0x000163d0                open
 .text          0x000165b8      0x1a8 ../Ascensor_bsp/\libucosii_bsp.a(alt_tick.o)
                0x000165b8                alt_alarm_stop
                0x00016650                alt_tick
 .text          0x00016760       0x20 ../Ascensor_bsp/\libucosii_bsp.a(altera_nios2_qsys_irq.o)
                0x00016760                altera_nios2_qsys_irq_init
 .text          0x00016780       0xd0 ../Ascensor_bsp/\libucosii_bsp.a(os_cpu_a.o)
                0x00016780                OSCtxSw
                0x00016780                OSIntCtxSw
                0x0001680c                OSStartHighRdy
                0x0001682c                OSStartTsk
 .text          0x00016850      0x418 ../Ascensor_bsp/\libucosii_bsp.a(os_cpu_c.o)
                0x00016850                OSTaskStkInit
                0x00016b60                OSTaskCreateHook
                0x00016b80                OSTaskDelHook
                0x00016ba0                OSTaskSwHook
                0x00016bbc                OSTaskStatHook
                0x00016bd8                OSTimeTickHook
                0x00016bf4                OSInitHookBegin
                0x00016c10                OSInitHookEnd
                0x00016c2c                OSTaskIdleHook
                0x00016c48                OSTCBInitHook
 .text          0x00016c68        0x0 ../Ascensor_bsp/\libucosii_bsp.a(alt_exception_entry.o)
 .text          0x00016c68      0x120 ../Ascensor_bsp/\libucosii_bsp.a(alt_find_file.o)
                0x00016c68                alt_find_file
 .text          0x00016d88       0xf4 ../Ascensor_bsp/\libucosii_bsp.a(alt_get_fd.o)
                0x00016d88                alt_get_fd
 .text          0x00016e7c       0x90 ../Ascensor_bsp/\libucosii_bsp.a(alt_icache_flush.o)
                0x00016e7c                alt_icache_flush
 .text          0x00016f0c       0x14 c:/altera/13.0sp1/nios2eds/bin/gnu/h-i686-mingw32/bin/../lib/gcc/nios2-elf/4.1.2/../../../../nios2-elf/lib\libc.a(lib_a-atexit.o)
                0x00016f0c                atexit
 .text          0x00016f20       0x38 c:/altera/13.0sp1/nios2eds/bin/gnu/h-i686-mingw32/bin/../lib/gcc/nios2-elf/4.1.2/../../../../nios2-elf/lib\libc.a(lib_a-exit.o)
                0x00016f20                exit
 .text          0x00016f58       0x74 c:/altera/13.0sp1/nios2eds/bin/gnu/h-i686-mingw32/bin/../lib/gcc/nios2-elf/4.1.2/../../../../nios2-elf/lib\libc.a(lib_a-memcmp.o)
                0x00016f58                memcmp
 .text          0x00016fcc      0x134 c:/altera/13.0sp1/nios2eds/bin/gnu/h-i686-mingw32/bin/../lib/gcc/nios2-elf/4.1.2/../../../../nios2-elf/lib\libc.a(lib_a-__atexit.o)
                0x00016fcc                __register_exitproc
 .text          0x00017100      0x1b4 c:/altera/13.0sp1/nios2eds/bin/gnu/h-i686-mingw32/bin/../lib/gcc/nios2-elf/4.1.2/../../../../nios2-elf/lib\libc.a(lib_a-__call_atexit.o)
                0x00017104                __call_exitprocs
 .text          0x000172b4       0xa4 c:/altera/13.0sp1/nios2eds/bin/gnu/h-i686-mingw32/bin/../lib/gcc/nios2-elf/4.1.2\libgcc.a(_fixunsdfsi.o)
                0x000172b4                __fixunsdfsi
 .text          0x00017358       0x6c ../Ascensor_bsp/\libucosii_bsp.a(alt_exit.o)
                0x00017398                _exit
 *(.gnu.warning.*)
 *(.fini)
                0x000173c4                PROVIDE (__etext, ABSOLUTE (.))
                0x000173c4                PROVIDE (_etext, ABSOLUTE (.))
                0x000173c4                PROVIDE (etext, ABSOLUTE (.))
 *(.eh_frame_hdr)
                0x000173c4                . = ALIGN (0x4)
                0x000173c4                PROVIDE (__preinit_array_start, ABSOLUTE (.))
 *(.preinit_array)
                0x000173c4                PROVIDE (__preinit_array_end, ABSOLUTE (.))
                0x000173c4                PROVIDE (__init_array_start, ABSOLUTE (.))
 *(.init_array)
                0x000173c4                PROVIDE (__init_array_end, ABSOLUTE (.))
                0x000173c4                PROVIDE (__fini_array_start, ABSOLUTE (.))
 *(.fini_array)
                0x000173c4                PROVIDE (__fini_array_end, ABSOLUTE (.))
 *(.eh_frame)
 *(.gcc_except_table)
 *(.dynamic)
                0x000173c4                PROVIDE (__CTOR_LIST__, ABSOLUTE (.))
 *(.ctors)
 *(SORT(.ctors.*))
 .ctors.65535   0x000173c4        0x4 c:/altera/13.0sp1/nios2eds/bin/gnu/h-i686-mingw32/bin/../lib/gcc/nios2-elf/4.1.2/../../../../nios2-elf/lib\libc.a(lib_a-__call_atexit.o)
                0x000173c8                PROVIDE (__CTOR_END__, ABSOLUTE (.))
                0x000173c8                PROVIDE (__DTOR_LIST__, ABSOLUTE (.))
 *(.dtors)
 *(SORT(.dtors.*))
                0x000173c8                PROVIDE (__DTOR_END__, ABSOLUTE (.))
 *(.jcr)
                0x000173c8                . = ALIGN (0x4)

.rodata         0x000173c8      0x600
                0x000173c8                PROVIDE (__ram_rodata_start, ABSOLUTE (.))
                0x000173c8                . = ALIGN (0x4)
 *(.rodata .rodata.* .gnu.linkonce.r.*)
 .rodata        0x000173c8      0x12c obj/default/hello_ucosii.o
 .rodata.str1.4
                0x000174f4        0x2 c:/altera/13.0sp1/nios2eds/bin/gnu/h-i686-mingw32/bin/../lib/gcc/nios2-elf/4.1.2/../../../../nios2-elf/lib\libc.a(lib_a-puts.o)
                                  0x4 (size before relaxing)
 *fill*         0x000174f6        0x2 00
 .rodata.str1.4
                0x000174f8       0x5e c:/altera/13.0sp1/nios2eds/bin/gnu/h-i686-mingw32/bin/../lib/gcc/nios2-elf/4.1.2/../../../../nios2-elf/lib\libc.a(lib_a-vfprintf.o)
                                 0x60 (size before relaxing)
 .rodata        0x00017556       0x20 c:/altera/13.0sp1/nios2eds/bin/gnu/h-i686-mingw32/bin/../lib/gcc/nios2-elf/4.1.2/../../../../nios2-elf/lib\libc.a(lib_a-vfprintf.o)
 *fill*         0x00017576        0x2 00
 .rodata.str1.4
                0x00017578       0x10 c:/altera/13.0sp1/nios2eds/bin/gnu/h-i686-mingw32/bin/../lib/gcc/nios2-elf/4.1.2/../../../../nios2-elf/lib\libc.a(lib_a-dtoa.o)
                                 0x14 (size before relaxing)
 .rodata.str1.4
                0x00017588        0x2 c:/altera/13.0sp1/nios2eds/bin/gnu/h-i686-mingw32/bin/../lib/gcc/nios2-elf/4.1.2/../../../../nios2-elf/lib\libc.a(lib_a-impure.o)
                                  0x4 (size before relaxing)
 *fill*         0x0001758a        0x2 00
 .rodata.str1.4
                0x0001758c       0x10 c:/altera/13.0sp1/nios2eds/bin/gnu/h-i686-mingw32/bin/../lib/gcc/nios2-elf/4.1.2/../../../../nios2-elf/lib\libc.a(lib_a-locale.o)
                                 0x18 (size before relaxing)
 .rodata        0x0001759c       0x30 c:/altera/13.0sp1/nios2eds/bin/gnu/h-i686-mingw32/bin/../lib/gcc/nios2-elf/4.1.2/../../../../nios2-elf/lib\libc.a(lib_a-locale.o)
 .rodata        0x000175cc      0x124 c:/altera/13.0sp1/nios2eds/bin/gnu/h-i686-mingw32/bin/../lib/gcc/nios2-elf/4.1.2/../../../../nios2-elf/lib\libc.a(lib_a-mprec.o)
                0x000175cc                __mprec_tens
                0x00017694                __mprec_bigtens
                0x000176bc                __mprec_tinytens
 .rodata        0x000176f0       0x14 c:/altera/13.0sp1/nios2eds/bin/gnu/h-i686-mingw32/bin/../lib/gcc/nios2-elf/4.1.2\libgcc.a(_thenan_df.o)
                0x000176f0                __thenan_df
 .rodata        0x00017704      0x100 c:/altera/13.0sp1/nios2eds/bin/gnu/h-i686-mingw32/bin/../lib/gcc/nios2-elf/4.1.2\libgcc.a(_clz.o)
                0x00017704                __clz_tab
 .rodata        0x00017804        0xc ../Ascensor_bsp/\libucosii_bsp.a(alt_dev.o)
 .rodata        0x00017810       0x10 ../Ascensor_bsp/\libucosii_bsp.a(alt_main.o)
 .rodata        0x00017820      0x120 ../Ascensor_bsp/\libucosii_bsp.a(os_core.o)
                0x00017820                OSUnMapTbl
 .rodata        0x00017940       0x84 ../Ascensor_bsp/\libucosii_bsp.a(alt_sys_init.o)
 .rodata        0x000179c4        0x4 ../Ascensor_bsp/\libucosii_bsp.a(os_cpu_c.o)
 *(.rodata1)
                0x000179c8                . = ALIGN (0x4)
                0x000179c8                PROVIDE (__ram_rodata_end, ABSOLUTE (.))
                0x000173c8                PROVIDE (__flash_rodata_start, LOADADDR (.rodata))

.rwdata         0x000179c8     0x1c1c load address 0x000195e4
                0x000179c8                PROVIDE (__ram_rwdata_start, ABSOLUTE (.))
                0x000179c8                . = ALIGN (0x4)
 *(.got.plt)
 *(.got)
 *(.data1)
 *(.data .data.* .gnu.linkonce.d.*)
 .data          0x000179c8        0x0 ../Ascensor_bsp//obj/HAL/src/crt0.o
 .data          0x000179c8        0x0 obj/default/hello_ucosii.o
 .data          0x000179c8        0x0 c:/altera/13.0sp1/nios2eds/bin/gnu/h-i686-mingw32/bin/../lib/gcc/nios2-elf/4.1.2/../../../../nios2-elf/lib\libc.a(lib_a-printf.o)
 .data          0x000179c8        0x0 c:/altera/13.0sp1/nios2eds/bin/gnu/h-i686-mingw32/bin/../lib/gcc/nios2-elf/4.1.2/../../../../nios2-elf/lib\libc.a(lib_a-puts.o)
 .data          0x000179c8        0x0 c:/altera/13.0sp1/nios2eds/bin/gnu/h-i686-mingw32/bin/../lib/gcc/nios2-elf/4.1.2/../../../../nios2-elf/lib\libc.a(lib_a-sprintf.o)
 .data          0x000179c8        0x0 c:/altera/13.0sp1/nios2eds/bin/gnu/h-i686-mingw32/bin/../lib/gcc/nios2-elf/4.1.2/../../../../nios2-elf/lib\libc.a(lib_a-strlen.o)
 .data          0x000179c8        0x0 c:/altera/13.0sp1/nios2eds/bin/gnu/h-i686-mingw32/bin/../lib/gcc/nios2-elf/4.1.2/../../../../nios2-elf/lib\libc.a(lib_a-vfprintf.o)
 .data          0x000179c8        0x0 c:/altera/13.0sp1/nios2eds/bin/gnu/h-i686-mingw32/bin/../lib/gcc/nios2-elf/4.1.2/../../../../nios2-elf/lib\libc.a(lib_a-wsetup.o)
 .data          0x000179c8        0x0 c:/altera/13.0sp1/nios2eds/bin/gnu/h-i686-mingw32/bin/../lib/gcc/nios2-elf/4.1.2/../../../../nios2-elf/lib\libc.a(lib_a-dtoa.o)
 .data          0x000179c8        0x0 c:/altera/13.0sp1/nios2eds/bin/gnu/h-i686-mingw32/bin/../lib/gcc/nios2-elf/4.1.2/../../../../nios2-elf/lib\libc.a(lib_a-fflush.o)
 .data          0x000179c8        0x0 c:/altera/13.0sp1/nios2eds/bin/gnu/h-i686-mingw32/bin/../lib/gcc/nios2-elf/4.1.2/../../../../nios2-elf/lib\libc.a(lib_a-findfp.o)
 .data          0x000179c8        0x0 c:/altera/13.0sp1/nios2eds/bin/gnu/h-i686-mingw32/bin/../lib/gcc/nios2-elf/4.1.2/../../../../nios2-elf/lib\libc.a(lib_a-freer.o)
 .data          0x000179c8        0x0 c:/altera/13.0sp1/nios2eds/bin/gnu/h-i686-mingw32/bin/../lib/gcc/nios2-elf/4.1.2/../../../../nios2-elf/lib\libc.a(lib_a-fvwrite.o)
 .data          0x000179c8        0x0 c:/altera/13.0sp1/nios2eds/bin/gnu/h-i686-mingw32/bin/../lib/gcc/nios2-elf/4.1.2/../../../../nios2-elf/lib\libc.a(lib_a-fwalk.o)
 .data          0x000179c8      0x400 c:/altera/13.0sp1/nios2eds/bin/gnu/h-i686-mingw32/bin/../lib/gcc/nios2-elf/4.1.2/../../../../nios2-elf/lib\libc.a(lib_a-impure.o)
 .data          0x00017dc8        0xc c:/altera/13.0sp1/nios2eds/bin/gnu/h-i686-mingw32/bin/../lib/gcc/nios2-elf/4.1.2/../../../../nios2-elf/lib\libc.a(lib_a-locale.o)
                0x00017dc8                __lc_ctype
 .data          0x00017dd4        0x0 c:/altera/13.0sp1/nios2eds/bin/gnu/h-i686-mingw32/bin/../lib/gcc/nios2-elf/4.1.2/../../../../nios2-elf/lib\libc.a(lib_a-makebuf.o)
 .data          0x00017dd4      0x408 c:/altera/13.0sp1/nios2eds/bin/gnu/h-i686-mingw32/bin/../lib/gcc/nios2-elf/4.1.2/../../../../nios2-elf/lib\libc.a(lib_a-mallocr.o)
                0x00017dd4                __malloc_av_
 .data          0x000181dc        0x0 c:/altera/13.0sp1/nios2eds/bin/gnu/h-i686-mingw32/bin/../lib/gcc/nios2-elf/4.1.2/../../../../nios2-elf/lib\libc.a(lib_a-memchr.o)
 .data          0x000181dc        0x0 c:/altera/13.0sp1/nios2eds/bin/gnu/h-i686-mingw32/bin/../lib/gcc/nios2-elf/4.1.2/../../../../nios2-elf/lib\libc.a(lib_a-memcpy.o)
 .data          0x000181dc        0x0 c:/altera/13.0sp1/nios2eds/bin/gnu/h-i686-mingw32/bin/../lib/gcc/nios2-elf/4.1.2/../../../../nios2-elf/lib\libc.a(lib_a-memmove.o)
 .data          0x000181dc        0x0 c:/altera/13.0sp1/nios2eds/bin/gnu/h-i686-mingw32/bin/../lib/gcc/nios2-elf/4.1.2/../../../../nios2-elf/lib\libc.a(lib_a-memset.o)
 .data          0x000181dc        0x0 c:/altera/13.0sp1/nios2eds/bin/gnu/h-i686-mingw32/bin/../lib/gcc/nios2-elf/4.1.2/../../../../nios2-elf/lib\libc.a(lib_a-mprec.o)
 .data          0x000181dc        0x0 c:/altera/13.0sp1/nios2eds/bin/gnu/h-i686-mingw32/bin/../lib/gcc/nios2-elf/4.1.2/../../../../nios2-elf/lib\libc.a(lib_a-reallocr.o)
 .data          0x000181dc        0x0 c:/altera/13.0sp1/nios2eds/bin/gnu/h-i686-mingw32/bin/../lib/gcc/nios2-elf/4.1.2/../../../../nios2-elf/lib\libc.a(lib_a-s_isinfd.o)
 .data          0x000181dc        0x0 c:/altera/13.0sp1/nios2eds/bin/gnu/h-i686-mingw32/bin/../lib/gcc/nios2-elf/4.1.2/../../../../nios2-elf/lib\libc.a(lib_a-s_isnand.o)
 .data          0x000181dc        0x0 c:/altera/13.0sp1/nios2eds/bin/gnu/h-i686-mingw32/bin/../lib/gcc/nios2-elf/4.1.2/../../../../nios2-elf/lib\libc.a(lib_a-sbrkr.o)
 .data          0x000181dc        0x0 c:/altera/13.0sp1/nios2eds/bin/gnu/h-i686-mingw32/bin/../lib/gcc/nios2-elf/4.1.2/../../../../nios2-elf/lib\libc.a(lib_a-stdio.o)
 .data          0x000181dc        0x0 c:/altera/13.0sp1/nios2eds/bin/gnu/h-i686-mingw32/bin/../lib/gcc/nios2-elf/4.1.2/../../../../nios2-elf/lib\libc.a(lib_a-strcmp.o)
 .data          0x000181dc        0x0 c:/altera/13.0sp1/nios2eds/bin/gnu/h-i686-mingw32/bin/../lib/gcc/nios2-elf/4.1.2/../../../../nios2-elf/lib\libc.a(lib_a-writer.o)
 .data          0x000181dc        0x0 c:/altera/13.0sp1/nios2eds/bin/gnu/h-i686-mingw32/bin/../lib/gcc/nios2-elf/4.1.2/../../../../nios2-elf/lib\libc.a(lib_a-callocr.o)
 .data          0x000181dc        0x0 c:/altera/13.0sp1/nios2eds/bin/gnu/h-i686-mingw32/bin/../lib/gcc/nios2-elf/4.1.2/../../../../nios2-elf/lib\libc.a(lib_a-closer.o)
 .data          0x000181dc        0x0 c:/altera/13.0sp1/nios2eds/bin/gnu/h-i686-mingw32/bin/../lib/gcc/nios2-elf/4.1.2/../../../../nios2-elf/lib\libc.a(lib_a-fclose.o)
 .data          0x000181dc        0x0 c:/altera/13.0sp1/nios2eds/bin/gnu/h-i686-mingw32/bin/../lib/gcc/nios2-elf/4.1.2/../../../../nios2-elf/lib\libc.a(lib_a-fstatr.o)
 .data          0x000181dc        0x0 c:/altera/13.0sp1/nios2eds/bin/gnu/h-i686-mingw32/bin/../lib/gcc/nios2-elf/4.1.2/../../../../nios2-elf/lib\libc.a(lib_a-int_errno.o)
 .data          0x000181dc        0x0 c:/altera/13.0sp1/nios2eds/bin/gnu/h-i686-mingw32/bin/../lib/gcc/nios2-elf/4.1.2/../../../../nios2-elf/lib\libc.a(lib_a-isattyr.o)
 .data          0x000181dc        0x0 c:/altera/13.0sp1/nios2eds/bin/gnu/h-i686-mingw32/bin/../lib/gcc/nios2-elf/4.1.2/../../../../nios2-elf/lib\libc.a(lib_a-lseekr.o)
 .data          0x000181dc        0x0 c:/altera/13.0sp1/nios2eds/bin/gnu/h-i686-mingw32/bin/../lib/gcc/nios2-elf/4.1.2/../../../../nios2-elf/lib\libc.a(lib_a-readr.o)
 .data          0x000181dc        0x0 c:/altera/13.0sp1/nios2eds/bin/gnu/h-i686-mingw32/bin/../lib/gcc/nios2-elf/4.1.2\libgcc.a(_udivdi3.o)
 .data          0x000181dc        0x0 c:/altera/13.0sp1/nios2eds/bin/gnu/h-i686-mingw32/bin/../lib/gcc/nios2-elf/4.1.2\libgcc.a(_umoddi3.o)
 .data          0x000181dc        0x0 c:/altera/13.0sp1/nios2eds/bin/gnu/h-i686-mingw32/bin/../lib/gcc/nios2-elf/4.1.2\libgcc.a(_addsub_df.o)
 .data          0x000181dc        0x0 c:/altera/13.0sp1/nios2eds/bin/gnu/h-i686-mingw32/bin/../lib/gcc/nios2-elf/4.1.2\libgcc.a(_mul_df.o)
 .data          0x000181dc        0x0 c:/altera/13.0sp1/nios2eds/bin/gnu/h-i686-mingw32/bin/../lib/gcc/nios2-elf/4.1.2\libgcc.a(_div_df.o)
 .data          0x000181dc        0x0 c:/altera/13.0sp1/nios2eds/bin/gnu/h-i686-mingw32/bin/../lib/gcc/nios2-elf/4.1.2\libgcc.a(_eq_df.o)
 .data          0x000181dc        0x0 c:/altera/13.0sp1/nios2eds/bin/gnu/h-i686-mingw32/bin/../lib/gcc/nios2-elf/4.1.2\libgcc.a(_ne_df.o)
 .data          0x000181dc        0x0 c:/altera/13.0sp1/nios2eds/bin/gnu/h-i686-mingw32/bin/../lib/gcc/nios2-elf/4.1.2\libgcc.a(_gt_df.o)
 .data          0x000181dc        0x0 c:/altera/13.0sp1/nios2eds/bin/gnu/h-i686-mingw32/bin/../lib/gcc/nios2-elf/4.1.2\libgcc.a(_ge_df.o)
 .data          0x000181dc        0x0 c:/altera/13.0sp1/nios2eds/bin/gnu/h-i686-mingw32/bin/../lib/gcc/nios2-elf/4.1.2\libgcc.a(_lt_df.o)
 .data          0x000181dc        0x0 c:/altera/13.0sp1/nios2eds/bin/gnu/h-i686-mingw32/bin/../lib/gcc/nios2-elf/4.1.2\libgcc.a(_si_to_df.o)
 .data          0x000181dc        0x0 c:/altera/13.0sp1/nios2eds/bin/gnu/h-i686-mingw32/bin/../lib/gcc/nios2-elf/4.1.2\libgcc.a(_df_to_si.o)
 .data          0x000181dc        0x0 c:/altera/13.0sp1/nios2eds/bin/gnu/h-i686-mingw32/bin/../lib/gcc/nios2-elf/4.1.2\libgcc.a(_thenan_df.o)
 .data          0x000181dc        0x0 c:/altera/13.0sp1/nios2eds/bin/gnu/h-i686-mingw32/bin/../lib/gcc/nios2-elf/4.1.2\libgcc.a(_usi_to_df.o)
 .data          0x000181dc        0x0 c:/altera/13.0sp1/nios2eds/bin/gnu/h-i686-mingw32/bin/../lib/gcc/nios2-elf/4.1.2\libgcc.a(lib2-divmod.o)
 .data          0x000181dc        0x0 c:/altera/13.0sp1/nios2eds/bin/gnu/h-i686-mingw32/bin/../lib/gcc/nios2-elf/4.1.2\libgcc.a(_muldi3.o)
 .data          0x000181dc        0x0 c:/altera/13.0sp1/nios2eds/bin/gnu/h-i686-mingw32/bin/../lib/gcc/nios2-elf/4.1.2\libgcc.a(_clz.o)
 .data          0x000181dc        0x0 c:/altera/13.0sp1/nios2eds/bin/gnu/h-i686-mingw32/bin/../lib/gcc/nios2-elf/4.1.2\libgcc.a(_clzsi2.o)
 .data          0x000181dc        0x0 c:/altera/13.0sp1/nios2eds/bin/gnu/h-i686-mingw32/bin/../lib/gcc/nios2-elf/4.1.2\libgcc.a(_pack_df.o)
 .data          0x000181dc        0x0 c:/altera/13.0sp1/nios2eds/bin/gnu/h-i686-mingw32/bin/../lib/gcc/nios2-elf/4.1.2\libgcc.a(_unpack_df.o)
 .data          0x000181dc        0x0 c:/altera/13.0sp1/nios2eds/bin/gnu/h-i686-mingw32/bin/../lib/gcc/nios2-elf/4.1.2\libgcc.a(_fpcmp_parts_df.o)
 .data          0x000181dc        0x0 ../Ascensor_bsp/\libucosii_bsp.a(alt_close.o)
 .data          0x000181dc      0x1a8 ../Ascensor_bsp/\libucosii_bsp.a(alt_dev.o)
                0x000181dc                alt_dev_null
                0x00018204                alt_fd_list
 .data          0x00018384        0x0 ../Ascensor_bsp/\libucosii_bsp.a(alt_errno.o)
 .data          0x00018384        0x0 ../Ascensor_bsp/\libucosii_bsp.a(alt_fstat.o)
 .data          0x00018384        0x0 ../Ascensor_bsp/\libucosii_bsp.a(alt_irq_register.o)
 .data          0x00018384        0x0 ../Ascensor_bsp/\libucosii_bsp.a(alt_irq_vars.o)
 .data          0x00018384        0x0 ../Ascensor_bsp/\libucosii_bsp.a(alt_isatty.o)
 .data          0x00018384        0x0 ../Ascensor_bsp/\libucosii_bsp.a(alt_load.o)
 .data          0x00018384        0x0 ../Ascensor_bsp/\libucosii_bsp.a(alt_lseek.o)
 .data          0x00018384        0x0 ../Ascensor_bsp/\libucosii_bsp.a(alt_main.o)
 .data          0x00018384        0x0 ../Ascensor_bsp/\libucosii_bsp.a(alt_read.o)
 .data          0x00018384        0x0 ../Ascensor_bsp/\libucosii_bsp.a(alt_release_fd.o)
 .data          0x00018384        0x0 ../Ascensor_bsp/\libucosii_bsp.a(alt_sbrk.o)
 .data          0x00018384        0x0 ../Ascensor_bsp/\libucosii_bsp.a(alt_write.o)
 .data          0x00018384        0x0 ../Ascensor_bsp/\libucosii_bsp.a(alt_env_lock.o)
 .data          0x00018384        0x0 ../Ascensor_bsp/\libucosii_bsp.a(alt_malloc_lock.o)
 .data          0x00018384        0x0 ../Ascensor_bsp/\libucosii_bsp.a(os_core.o)
 .data          0x00018384        0x0 ../Ascensor_bsp/\libucosii_bsp.a(os_dbg.o)
 .data          0x00018384        0x0 ../Ascensor_bsp/\libucosii_bsp.a(os_flag.o)
 .data          0x00018384        0x0 ../Ascensor_bsp/\libucosii_bsp.a(os_mbox.o)
 .data          0x00018384        0x0 ../Ascensor_bsp/\libucosii_bsp.a(os_mem.o)
 .data          0x00018384        0x0 ../Ascensor_bsp/\libucosii_bsp.a(os_q.o)
 .data          0x00018384        0x0 ../Ascensor_bsp/\libucosii_bsp.a(os_sem.o)
 .data          0x00018384        0x0 ../Ascensor_bsp/\libucosii_bsp.a(os_task.o)
 .data          0x00018384        0x0 ../Ascensor_bsp/\libucosii_bsp.a(os_time.o)
 .data          0x00018384     0x11a0 ../Ascensor_bsp/\libucosii_bsp.a(alt_sys_init.o)
 .data          0x00019524        0x0 ../Ascensor_bsp/\libucosii_bsp.a(altera_avalon_jtag_uart_fd.o)
 .data          0x00019524        0x0 ../Ascensor_bsp/\libucosii_bsp.a(altera_avalon_jtag_uart_init.o)
 .data          0x00019524        0x0 ../Ascensor_bsp/\libucosii_bsp.a(altera_avalon_jtag_uart_ioctl.o)
 .data          0x00019524        0x0 ../Ascensor_bsp/\libucosii_bsp.a(altera_avalon_jtag_uart_read.o)
 .data          0x00019524        0x0 ../Ascensor_bsp/\libucosii_bsp.a(altera_avalon_jtag_uart_write.o)
 .data          0x00019524        0x0 ../Ascensor_bsp/\libucosii_bsp.a(altera_avalon_timer_sc.o)
 .data          0x00019524        0x0 ../Ascensor_bsp/\libucosii_bsp.a(altera_up_avalon_character_lcd.o)
 .data          0x00019524        0x0 ../Ascensor_bsp/\libucosii_bsp.a(alt_alarm_start.o)
 .data          0x00019524        0x0 ../Ascensor_bsp/\libucosii_bsp.a(alt_dcache_flush_all.o)
 .data          0x00019524        0x0 ../Ascensor_bsp/\libucosii_bsp.a(alt_dev_llist_insert.o)
 .data          0x00019524        0x0 ../Ascensor_bsp/\libucosii_bsp.a(alt_do_ctors.o)
 .data          0x00019524        0x0 ../Ascensor_bsp/\libucosii_bsp.a(alt_do_dtors.o)
 .data          0x00019524        0x0 ../Ascensor_bsp/\libucosii_bsp.a(alt_find_dev.o)
 .data          0x00019524        0x0 ../Ascensor_bsp/\libucosii_bsp.a(alt_icache_flush_all.o)
 .data          0x00019524        0x0 ../Ascensor_bsp/\libucosii_bsp.a(alt_io_redirect.o)
 .data          0x00019524        0x0 ../Ascensor_bsp/\libucosii_bsp.a(alt_irq_entry.o)
 .data          0x00019524        0x0 ../Ascensor_bsp/\libucosii_bsp.a(alt_irq_handler.o)
 .data          0x00019524        0x0 ../Ascensor_bsp/\libucosii_bsp.a(alt_open.o)
 .data          0x00019524        0x0 ../Ascensor_bsp/\libucosii_bsp.a(alt_tick.o)
 .data          0x00019524        0x0 ../Ascensor_bsp/\libucosii_bsp.a(altera_nios2_qsys_irq.o)
 .data          0x00019524        0x0 ../Ascensor_bsp/\libucosii_bsp.a(os_cpu_a.o)
 .data          0x00019524        0x0 ../Ascensor_bsp/\libucosii_bsp.a(os_cpu_c.o)
 .data          0x00019524        0x0 ../Ascensor_bsp/\libucosii_bsp.a(alt_exception_entry.o)
 .data          0x00019524        0x0 ../Ascensor_bsp/\libucosii_bsp.a(alt_find_file.o)
 .data          0x00019524        0x0 ../Ascensor_bsp/\libucosii_bsp.a(alt_get_fd.o)
 .data          0x00019524        0x0 ../Ascensor_bsp/\libucosii_bsp.a(alt_icache_flush.o)
 .data          0x00019524        0x0 c:/altera/13.0sp1/nios2eds/bin/gnu/h-i686-mingw32/bin/../lib/gcc/nios2-elf/4.1.2/../../../../nios2-elf/lib\libc.a(lib_a-atexit.o)
 .data          0x00019524        0x0 c:/altera/13.0sp1/nios2eds/bin/gnu/h-i686-mingw32/bin/../lib/gcc/nios2-elf/4.1.2/../../../../nios2-elf/lib\libc.a(lib_a-exit.o)
 .data          0x00019524        0x0 c:/altera/13.0sp1/nios2eds/bin/gnu/h-i686-mingw32/bin/../lib/gcc/nios2-elf/4.1.2/../../../../nios2-elf/lib\libc.a(lib_a-memcmp.o)
 .data          0x00019524        0x0 c:/altera/13.0sp1/nios2eds/bin/gnu/h-i686-mingw32/bin/../lib/gcc/nios2-elf/4.1.2/../../../../nios2-elf/lib\libc.a(lib_a-__atexit.o)
 .data          0x00019524        0x0 c:/altera/13.0sp1/nios2eds/bin/gnu/h-i686-mingw32/bin/../lib/gcc/nios2-elf/4.1.2/../../../../nios2-elf/lib\libc.a(lib_a-__call_atexit.o)
 .data          0x00019524        0x0 c:/altera/13.0sp1/nios2eds/bin/gnu/h-i686-mingw32/bin/../lib/gcc/nios2-elf/4.1.2\libgcc.a(_fixunsdfsi.o)
 .data          0x00019524        0x0 ../Ascensor_bsp/\libucosii_bsp.a(alt_exit.o)
                0x00021524                _gp = ABSOLUTE ((. + 0x8000))
                0x00021524                PROVIDE (gp, _gp)
 *(.rwdata .rwdata.*)
 *(.sdata .sdata.* .gnu.linkonce.s.*)
 .sdata         0x00019524        0x4 obj/default/hello_ucosii.o
                0x00019524                KEY_ptr
 .sdata         0x00019528        0x8 c:/altera/13.0sp1/nios2eds/bin/gnu/h-i686-mingw32/bin/../lib/gcc/nios2-elf/4.1.2/../../../../nios2-elf/lib\libc.a(lib_a-impure.o)
                0x00019528                _impure_ptr
                0x0001952c                _global_impure_ptr
 .sdata         0x00019530        0x8 c:/altera/13.0sp1/nios2eds/bin/gnu/h-i686-mingw32/bin/../lib/gcc/nios2-elf/4.1.2/../../../../nios2-elf/lib\libc.a(lib_a-locale.o)
                0x00019530                __mb_cur_max
 .sdata         0x00019538        0x8 c:/altera/13.0sp1/nios2eds/bin/gnu/h-i686-mingw32/bin/../lib/gcc/nios2-elf/4.1.2/../../../../nios2-elf/lib\libc.a(lib_a-mallocr.o)
                0x00019538                __malloc_trim_threshold
                0x0001953c                __malloc_sbrk_base
 .sdata         0x00019540       0x14 ../Ascensor_bsp/\libucosii_bsp.a(alt_dev.o)
                0x00019540                alt_fs_list
                0x00019548                alt_dev_list
                0x00019550                alt_max_fd
 .sdata         0x00019554        0x4 ../Ascensor_bsp/\libucosii_bsp.a(alt_errno.o)
                0x00019554                alt_errno
 .sdata         0x00019558        0x4 ../Ascensor_bsp/\libucosii_bsp.a(alt_irq_vars.o)
                0x00019558                alt_priority_mask
 .sdata         0x0001955c        0x4 ../Ascensor_bsp/\libucosii_bsp.a(alt_sbrk.o)
 .sdata         0x00019560        0x4 ../Ascensor_bsp/\libucosii_bsp.a(alt_env_lock.o)
 .sdata         0x00019564        0x4 ../Ascensor_bsp/\libucosii_bsp.a(alt_malloc_lock.o)
 .sdata         0x00019568       0x74 ../Ascensor_bsp/\libucosii_bsp.a(os_dbg.o)
                0x00019568                OSDebugEn
                0x0001956c                OSEndiannessTest
                0x00019570                OSEventEn
                0x00019572                OSEventMax
                0x00019574                OSEventNameSize
                0x00019576                OSEventSize
                0x00019578                OSEventTblSize
                0x0001957a                OSEventMultiEn
                0x0001957c                OSFlagEn
                0x0001957e                OSFlagGrpSize
                0x00019580                OSFlagNodeSize
                0x00019582                OSFlagWidth
                0x00019584                OSFlagMax
                0x00019586                OSFlagNameSize
                0x00019588                OSLowestPrio
                0x0001958a                OSMboxEn
                0x0001958c                OSMemEn
                0x0001958e                OSMemMax
                0x00019590                OSMemNameSize
                0x00019592                OSMemSize
                0x00019594                OSMemTblSize
                0x00019596                OSMutexEn
                0x00019598                OSPtrSize
                0x0001959a                OSQEn
                0x0001959c                OSQMax
                0x0001959e                OSQSize
                0x000195a0                OSRdyTblSize
                0x000195a2                OSSemEn
                0x000195a4                OSStkWidth
                0x000195a6                OSTaskCreateEn
                0x000195a8                OSTaskCreateExtEn
                0x000195aa                OSTaskDelEn
                0x000195ac                OSTaskIdleStkSize
                0x000195ae                OSTaskProfileEn
                0x000195b0                OSTaskMax
                0x000195b2                OSTaskNameSize
                0x000195b4                OSTaskStatEn
                0x000195b6                OSTaskStatStkSize
                0x000195b8                OSTaskStatStkChkEn
                0x000195ba                OSTaskSwHookEn
                0x000195bc                OSTCBPrioTblMax
                0x000195be                OSTCBSize
                0x000195c0                OSTicksPerSec
                0x000195c2                OSTimeTickHookEn
                0x000195c4                OSVersionNbr
                0x000195c6                OSTmrEn
                0x000195c8                OSTmrCfgMax
                0x000195ca                OSTmrCfgNameSize
                0x000195cc                OSTmrCfgWheelSize
                0x000195ce                OSTmrCfgTicksPerSec
                0x000195d0                OSTmrSize
                0x000195d2                OSTmrTblSize
                0x000195d4                OSTmrWheelSize
                0x000195d6                OSTmrWheelTblSize
                0x000195d8                OSDataSize
 .sdata         0x000195dc        0x8 ../Ascensor_bsp/\libucosii_bsp.a(alt_tick.o)
                0x000195dc                alt_alarm_list
 *(.sdata2 .sdata2.* .gnu.linkonce.s2.*)
                0x000195e4                . = ALIGN (0x4)
                0x000195e4                _edata = ABSOLUTE (.)
                0x000195e4                PROVIDE (edata, ABSOLUTE (.))
                0x000195e4                PROVIDE (__ram_rwdata_end, ABSOLUTE (.))
                0x000195e4                PROVIDE (__flash_rwdata_start, LOADADDR (.rwdata))

.bss            0x0001b200    0x175a8
                0x0001b200                __bss_start = ABSOLUTE (.)
                0x0001b200                PROVIDE (__sbss_start, ABSOLUTE (.))
                0x0001b200                PROVIDE (___sbss_start, ABSOLUTE (.))
 *(.dynsbss)
 *(.sbss .sbss.* .gnu.linkonce.sb.*)
 .sbss          0x0001b200       0x34 obj/default/hello_ucosii.o
                0x0001b200                mbacciones_seguridad
                0x0001b204                mbllamadas_control
                0x0001b208                mbllamadas_visualizacion
                0x0001b20c                mbsensorpuerta_seguridad
                0x0001b210                mbsensorplanta_seguridad
                0x0001b214                mbposicion_visualizacion
                0x0001b218                mbposicion_control
                0x0001b21c                key_pressed
                0x0001b220                mbacciones_visualizacion
                0x0001b224                mbacciones_cabina
                0x0001b228                mbperturbacion_seguridad
                0x0001b22c                smSeguridad
                0x0001b230                mbposicion_seguridad
 .sbss          0x0001b234        0xc c:/altera/13.0sp1/nios2eds/bin/gnu/h-i686-mingw32/bin/../lib/gcc/nios2-elf/4.1.2/../../../../nios2-elf/lib\libc.a(lib_a-locale.o)
                0x0001b234                __nlocale_changed
                0x0001b238                __mlocale_changed
                0x0001b23c                _PathLocale
 .sbss          0x0001b240        0xc c:/altera/13.0sp1/nios2eds/bin/gnu/h-i686-mingw32/bin/../lib/gcc/nios2-elf/4.1.2/../../../../nios2-elf/lib\libc.a(lib_a-mallocr.o)
                0x0001b240                __malloc_top_pad
                0x0001b244                __malloc_max_sbrked_mem
                0x0001b248                __malloc_max_total_mem
 .sbss          0x0001b24c        0x4 c:/altera/13.0sp1/nios2eds/bin/gnu/h-i686-mingw32/bin/../lib/gcc/nios2-elf/4.1.2/../../../../nios2-elf/lib\libc.a(lib_a-int_errno.o)
                0x0001b24c                errno
 .sbss          0x0001b250        0x4 ../Ascensor_bsp/\libucosii_bsp.a(alt_dev.o)
                0x0001b250                alt_fd_list_lock
 .sbss          0x0001b254        0x4 ../Ascensor_bsp/\libucosii_bsp.a(alt_irq_vars.o)
                0x0001b254                alt_irq_active
 .sbss          0x0001b258        0xc ../Ascensor_bsp/\libucosii_bsp.a(alt_main.o)
                0x0001b258                alt_argc
                0x0001b25c                alt_argv
                0x0001b260                alt_envp
 .sbss          0x0001b264        0x8 ../Ascensor_bsp/\libucosii_bsp.a(alt_env_lock.o)
                0x0001b268                alt_envsem
 .sbss          0x0001b26c        0x8 ../Ascensor_bsp/\libucosii_bsp.a(alt_malloc_lock.o)
                0x0001b270                alt_heapsem
 .sbss          0x0001b274       0x50 ../Ascensor_bsp/\libucosii_bsp.a(os_core.o)
                0x0001b274                OSLockNesting
                0x0001b275                OSRunning
                0x0001b278                OSIdleCtr
                0x0001b27c                OSPrioHighRdy
                0x0001b27d                OSPrioCur
                0x0001b280                OSTCBList
                0x0001b284                OSTickStepState
                0x0001b288                OSCtxSwCtr
                0x0001b28c                OSIdleCtrMax
                0x0001b290                OSTCBFreeList
                0x0001b294                OSCPUUsage
                0x0001b295                OSTaskCtr
                0x0001b298                OSMemFreeList
                0x0001b29c                OSTCBHighRdy
                0x0001b2a0                OSQFreeList
                0x0001b2a4                OSRdyGrp
                0x0001b2a5                OSRdyTbl
                0x0001b2a8                OSEventFreeList
                0x0001b2ac                OSIntNesting
                0x0001b2b0                OSTCBCur
                0x0001b2b4                OSTime
                0x0001b2b8                OSFlagFreeList
                0x0001b2bc                OSStatRdy
                0x0001b2c0                OSIdleCtrRun
 .sbss          0x0001b2c4        0x8 ../Ascensor_bsp/\libucosii_bsp.a(alt_tick.o)
                0x0001b2c4                _alt_tick_rate
                0x0001b2c8                _alt_nticks
 *(.sbss2 .sbss2.* .gnu.linkonce.sb2.*)
 *(.scommon)
                0x0001b2cc                PROVIDE (__sbss_end, ABSOLUTE (.))
                0x0001b2cc                PROVIDE (___sbss_end, ABSOLUTE (.))
 *(.dynbss)
 *(.bss .bss.* .gnu.linkonce.b.*)
 .bss           0x0001b2cc        0x0 ../Ascensor_bsp//obj/HAL/src/crt0.o
 .bss           0x0001b2cc        0x0 obj/default/hello_ucosii.o
 .bss           0x0001b2cc        0x0 c:/altera/13.0sp1/nios2eds/bin/gnu/h-i686-mingw32/bin/../lib/gcc/nios2-elf/4.1.2/../../../../nios2-elf/lib\libc.a(lib_a-printf.o)
 .bss           0x0001b2cc        0x0 c:/altera/13.0sp1/nios2eds/bin/gnu/h-i686-mingw32/bin/../lib/gcc/nios2-elf/4.1.2/../../../../nios2-elf/lib\libc.a(lib_a-puts.o)
 .bss           0x0001b2cc        0x0 c:/altera/13.0sp1/nios2eds/bin/gnu/h-i686-mingw32/bin/../lib/gcc/nios2-elf/4.1.2/../../../../nios2-elf/lib\libc.a(lib_a-sprintf.o)
 .bss           0x0001b2cc        0x0 c:/altera/13.0sp1/nios2eds/bin/gnu/h-i686-mingw32/bin/../lib/gcc/nios2-elf/4.1.2/../../../../nios2-elf/lib\libc.a(lib_a-strlen.o)
 .bss           0x0001b2cc        0x0 c:/altera/13.0sp1/nios2eds/bin/gnu/h-i686-mingw32/bin/../lib/gcc/nios2-elf/4.1.2/../../../../nios2-elf/lib\libc.a(lib_a-vfprintf.o)
 .bss           0x0001b2cc        0x0 c:/altera/13.0sp1/nios2eds/bin/gnu/h-i686-mingw32/bin/../lib/gcc/nios2-elf/4.1.2/../../../../nios2-elf/lib\libc.a(lib_a-wsetup.o)
 .bss           0x0001b2cc        0x0 c:/altera/13.0sp1/nios2eds/bin/gnu/h-i686-mingw32/bin/../lib/gcc/nios2-elf/4.1.2/../../../../nios2-elf/lib\libc.a(lib_a-dtoa.o)
 .bss           0x0001b2cc        0x0 c:/altera/13.0sp1/nios2eds/bin/gnu/h-i686-mingw32/bin/../lib/gcc/nios2-elf/4.1.2/../../../../nios2-elf/lib\libc.a(lib_a-fflush.o)
 .bss           0x0001b2cc        0x0 c:/altera/13.0sp1/nios2eds/bin/gnu/h-i686-mingw32/bin/../lib/gcc/nios2-elf/4.1.2/../../../../nios2-elf/lib\libc.a(lib_a-findfp.o)
 .bss           0x0001b2cc        0x0 c:/altera/13.0sp1/nios2eds/bin/gnu/h-i686-mingw32/bin/../lib/gcc/nios2-elf/4.1.2/../../../../nios2-elf/lib\libc.a(lib_a-freer.o)
 .bss           0x0001b2cc        0x0 c:/altera/13.0sp1/nios2eds/bin/gnu/h-i686-mingw32/bin/../lib/gcc/nios2-elf/4.1.2/../../../../nios2-elf/lib\libc.a(lib_a-fvwrite.o)
 .bss           0x0001b2cc        0x0 c:/altera/13.0sp1/nios2eds/bin/gnu/h-i686-mingw32/bin/../lib/gcc/nios2-elf/4.1.2/../../../../nios2-elf/lib\libc.a(lib_a-fwalk.o)
 .bss           0x0001b2cc        0x0 c:/altera/13.0sp1/nios2eds/bin/gnu/h-i686-mingw32/bin/../lib/gcc/nios2-elf/4.1.2/../../../../nios2-elf/lib\libc.a(lib_a-impure.o)
 .bss           0x0001b2cc        0x0 c:/altera/13.0sp1/nios2eds/bin/gnu/h-i686-mingw32/bin/../lib/gcc/nios2-elf/4.1.2/../../../../nios2-elf/lib\libc.a(lib_a-locale.o)
 .bss           0x0001b2cc        0x0 c:/altera/13.0sp1/nios2eds/bin/gnu/h-i686-mingw32/bin/../lib/gcc/nios2-elf/4.1.2/../../../../nios2-elf/lib\libc.a(lib_a-makebuf.o)
 .bss           0x0001b2cc       0x28 c:/altera/13.0sp1/nios2eds/bin/gnu/h-i686-mingw32/bin/../lib/gcc/nios2-elf/4.1.2/../../../../nios2-elf/lib\libc.a(lib_a-mallocr.o)
                0x0001b2cc                __malloc_current_mallinfo
 .bss           0x0001b2f4        0x0 c:/altera/13.0sp1/nios2eds/bin/gnu/h-i686-mingw32/bin/../lib/gcc/nios2-elf/4.1.2/../../../../nios2-elf/lib\libc.a(lib_a-memchr.o)
 .bss           0x0001b2f4        0x0 c:/altera/13.0sp1/nios2eds/bin/gnu/h-i686-mingw32/bin/../lib/gcc/nios2-elf/4.1.2/../../../../nios2-elf/lib\libc.a(lib_a-memcpy.o)
 .bss           0x0001b2f4        0x0 c:/altera/13.0sp1/nios2eds/bin/gnu/h-i686-mingw32/bin/../lib/gcc/nios2-elf/4.1.2/../../../../nios2-elf/lib\libc.a(lib_a-memmove.o)
 .bss           0x0001b2f4        0x0 c:/altera/13.0sp1/nios2eds/bin/gnu/h-i686-mingw32/bin/../lib/gcc/nios2-elf/4.1.2/../../../../nios2-elf/lib\libc.a(lib_a-memset.o)
 .bss           0x0001b2f4        0x0 c:/altera/13.0sp1/nios2eds/bin/gnu/h-i686-mingw32/bin/../lib/gcc/nios2-elf/4.1.2/../../../../nios2-elf/lib\libc.a(lib_a-mprec.o)
 .bss           0x0001b2f4        0x0 c:/altera/13.0sp1/nios2eds/bin/gnu/h-i686-mingw32/bin/../lib/gcc/nios2-elf/4.1.2/../../../../nios2-elf/lib\libc.a(lib_a-reallocr.o)
 .bss           0x0001b2f4        0x0 c:/altera/13.0sp1/nios2eds/bin/gnu/h-i686-mingw32/bin/../lib/gcc/nios2-elf/4.1.2/../../../../nios2-elf/lib\libc.a(lib_a-s_isinfd.o)
 .bss           0x0001b2f4        0x0 c:/altera/13.0sp1/nios2eds/bin/gnu/h-i686-mingw32/bin/../lib/gcc/nios2-elf/4.1.2/../../../../nios2-elf/lib\libc.a(lib_a-s_isnand.o)
 .bss           0x0001b2f4        0x0 c:/altera/13.0sp1/nios2eds/bin/gnu/h-i686-mingw32/bin/../lib/gcc/nios2-elf/4.1.2/../../../../nios2-elf/lib\libc.a(lib_a-sbrkr.o)
 .bss           0x0001b2f4        0x0 c:/altera/13.0sp1/nios2eds/bin/gnu/h-i686-mingw32/bin/../lib/gcc/nios2-elf/4.1.2/../../../../nios2-elf/lib\libc.a(lib_a-stdio.o)
 .bss           0x0001b2f4        0x0 c:/altera/13.0sp1/nios2eds/bin/gnu/h-i686-mingw32/bin/../lib/gcc/nios2-elf/4.1.2/../../../../nios2-elf/lib\libc.a(lib_a-strcmp.o)
 .bss           0x0001b2f4        0x0 c:/altera/13.0sp1/nios2eds/bin/gnu/h-i686-mingw32/bin/../lib/gcc/nios2-elf/4.1.2/../../../../nios2-elf/lib\libc.a(lib_a-writer.o)
 .bss           0x0001b2f4        0x0 c:/altera/13.0sp1/nios2eds/bin/gnu/h-i686-mingw32/bin/../lib/gcc/nios2-elf/4.1.2/../../../../nios2-elf/lib\libc.a(lib_a-callocr.o)
 .bss           0x0001b2f4        0x0 c:/altera/13.0sp1/nios2eds/bin/gnu/h-i686-mingw32/bin/../lib/gcc/nios2-elf/4.1.2/../../../../nios2-elf/lib\libc.a(lib_a-closer.o)
 .bss           0x0001b2f4        0x0 c:/altera/13.0sp1/nios2eds/bin/gnu/h-i686-mingw32/bin/../lib/gcc/nios2-elf/4.1.2/../../../../nios2-elf/lib\libc.a(lib_a-fclose.o)
 .bss           0x0001b2f4        0x0 c:/altera/13.0sp1/nios2eds/bin/gnu/h-i686-mingw32/bin/../lib/gcc/nios2-elf/4.1.2/../../../../nios2-elf/lib\libc.a(lib_a-fstatr.o)
 .bss           0x0001b2f4        0x0 c:/altera/13.0sp1/nios2eds/bin/gnu/h-i686-mingw32/bin/../lib/gcc/nios2-elf/4.1.2/../../../../nios2-elf/lib\libc.a(lib_a-int_errno.o)
 .bss           0x0001b2f4        0x0 c:/altera/13.0sp1/nios2eds/bin/gnu/h-i686-mingw32/bin/../lib/gcc/nios2-elf/4.1.2/../../../../nios2-elf/lib\libc.a(lib_a-isattyr.o)
 .bss           0x0001b2f4        0x0 c:/altera/13.0sp1/nios2eds/bin/gnu/h-i686-mingw32/bin/../lib/gcc/nios2-elf/4.1.2/../../../../nios2-elf/lib\libc.a(lib_a-lseekr.o)
 .bss           0x0001b2f4        0x0 c:/altera/13.0sp1/nios2eds/bin/gnu/h-i686-mingw32/bin/../lib/gcc/nios2-elf/4.1.2/../../../../nios2-elf/lib\libc.a(lib_a-readr.o)
 .bss           0x0001b2f4        0x0 c:/altera/13.0sp1/nios2eds/bin/gnu/h-i686-mingw32/bin/../lib/gcc/nios2-elf/4.1.2\libgcc.a(_udivdi3.o)
 .bss           0x0001b2f4        0x0 c:/altera/13.0sp1/nios2eds/bin/gnu/h-i686-mingw32/bin/../lib/gcc/nios2-elf/4.1.2\libgcc.a(_umoddi3.o)
 .bss           0x0001b2f4        0x0 c:/altera/13.0sp1/nios2eds/bin/gnu/h-i686-mingw32/bin/../lib/gcc/nios2-elf/4.1.2\libgcc.a(_addsub_df.o)
 .bss           0x0001b2f4        0x0 c:/altera/13.0sp1/nios2eds/bin/gnu/h-i686-mingw32/bin/../lib/gcc/nios2-elf/4.1.2\libgcc.a(_mul_df.o)
 .bss           0x0001b2f4        0x0 c:/altera/13.0sp1/nios2eds/bin/gnu/h-i686-mingw32/bin/../lib/gcc/nios2-elf/4.1.2\libgcc.a(_div_df.o)
 .bss           0x0001b2f4        0x0 c:/altera/13.0sp1/nios2eds/bin/gnu/h-i686-mingw32/bin/../lib/gcc/nios2-elf/4.1.2\libgcc.a(_eq_df.o)
 .bss           0x0001b2f4        0x0 c:/altera/13.0sp1/nios2eds/bin/gnu/h-i686-mingw32/bin/../lib/gcc/nios2-elf/4.1.2\libgcc.a(_ne_df.o)
 .bss           0x0001b2f4        0x0 c:/altera/13.0sp1/nios2eds/bin/gnu/h-i686-mingw32/bin/../lib/gcc/nios2-elf/4.1.2\libgcc.a(_gt_df.o)
 .bss           0x0001b2f4        0x0 c:/altera/13.0sp1/nios2eds/bin/gnu/h-i686-mingw32/bin/../lib/gcc/nios2-elf/4.1.2\libgcc.a(_ge_df.o)
 .bss           0x0001b2f4        0x0 c:/altera/13.0sp1/nios2eds/bin/gnu/h-i686-mingw32/bin/../lib/gcc/nios2-elf/4.1.2\libgcc.a(_lt_df.o)
 .bss           0x0001b2f4        0x0 c:/altera/13.0sp1/nios2eds/bin/gnu/h-i686-mingw32/bin/../lib/gcc/nios2-elf/4.1.2\libgcc.a(_si_to_df.o)
 .bss           0x0001b2f4        0x0 c:/altera/13.0sp1/nios2eds/bin/gnu/h-i686-mingw32/bin/../lib/gcc/nios2-elf/4.1.2\libgcc.a(_df_to_si.o)
 .bss           0x0001b2f4        0x0 c:/altera/13.0sp1/nios2eds/bin/gnu/h-i686-mingw32/bin/../lib/gcc/nios2-elf/4.1.2\libgcc.a(_thenan_df.o)
 .bss           0x0001b2f4        0x0 c:/altera/13.0sp1/nios2eds/bin/gnu/h-i686-mingw32/bin/../lib/gcc/nios2-elf/4.1.2\libgcc.a(_usi_to_df.o)
 .bss           0x0001b2f4        0x0 c:/altera/13.0sp1/nios2eds/bin/gnu/h-i686-mingw32/bin/../lib/gcc/nios2-elf/4.1.2\libgcc.a(lib2-divmod.o)
 .bss           0x0001b2f4        0x0 c:/altera/13.0sp1/nios2eds/bin/gnu/h-i686-mingw32/bin/../lib/gcc/nios2-elf/4.1.2\libgcc.a(_muldi3.o)
 .bss           0x0001b2f4        0x0 c:/altera/13.0sp1/nios2eds/bin/gnu/h-i686-mingw32/bin/../lib/gcc/nios2-elf/4.1.2\libgcc.a(_clz.o)
 .bss           0x0001b2f4        0x0 c:/altera/13.0sp1/nios2eds/bin/gnu/h-i686-mingw32/bin/../lib/gcc/nios2-elf/4.1.2\libgcc.a(_clzsi2.o)
 .bss           0x0001b2f4        0x0 c:/altera/13.0sp1/nios2eds/bin/gnu/h-i686-mingw32/bin/../lib/gcc/nios2-elf/4.1.2\libgcc.a(_pack_df.o)
 .bss           0x0001b2f4        0x0 c:/altera/13.0sp1/nios2eds/bin/gnu/h-i686-mingw32/bin/../lib/gcc/nios2-elf/4.1.2\libgcc.a(_unpack_df.o)
 .bss           0x0001b2f4        0x0 c:/altera/13.0sp1/nios2eds/bin/gnu/h-i686-mingw32/bin/../lib/gcc/nios2-elf/4.1.2\libgcc.a(_fpcmp_parts_df.o)
 .bss           0x0001b2f4        0x0 ../Ascensor_bsp/\libucosii_bsp.a(alt_close.o)
 .bss           0x0001b2f4        0x0 ../Ascensor_bsp/\libucosii_bsp.a(alt_dev.o)
 .bss           0x0001b2f4        0x0 ../Ascensor_bsp/\libucosii_bsp.a(alt_errno.o)
 .bss           0x0001b2f4        0x0 ../Ascensor_bsp/\libucosii_bsp.a(alt_fstat.o)
 .bss           0x0001b2f4        0x0 ../Ascensor_bsp/\libucosii_bsp.a(alt_irq_register.o)
 .bss           0x0001b2f4        0x0 ../Ascensor_bsp/\libucosii_bsp.a(alt_irq_vars.o)
 .bss           0x0001b2f4        0x0 ../Ascensor_bsp/\libucosii_bsp.a(alt_isatty.o)
 .bss           0x0001b2f4        0x0 ../Ascensor_bsp/\libucosii_bsp.a(alt_load.o)
 .bss           0x0001b2f4        0x0 ../Ascensor_bsp/\libucosii_bsp.a(alt_lseek.o)
 .bss           0x0001b2f4        0x0 ../Ascensor_bsp/\libucosii_bsp.a(alt_main.o)
 .bss           0x0001b2f4        0x0 ../Ascensor_bsp/\libucosii_bsp.a(alt_read.o)
 .bss           0x0001b2f4        0x0 ../Ascensor_bsp/\libucosii_bsp.a(alt_release_fd.o)
 .bss           0x0001b2f4        0x0 ../Ascensor_bsp/\libucosii_bsp.a(alt_sbrk.o)
 .bss           0x0001b2f4        0x0 ../Ascensor_bsp/\libucosii_bsp.a(alt_write.o)
 .bss           0x0001b2f4        0x0 ../Ascensor_bsp/\libucosii_bsp.a(alt_env_lock.o)
 .bss           0x0001b2f4        0x0 ../Ascensor_bsp/\libucosii_bsp.a(alt_malloc_lock.o)
 .bss           0x0001b2f4        0x0 ../Ascensor_bsp/\libucosii_bsp.a(os_core.o)
 .bss           0x0001b2f4        0x0 ../Ascensor_bsp/\libucosii_bsp.a(os_dbg.o)
 .bss           0x0001b2f4        0x0 ../Ascensor_bsp/\libucosii_bsp.a(os_flag.o)
 .bss           0x0001b2f4        0x0 ../Ascensor_bsp/\libucosii_bsp.a(os_mbox.o)
 .bss           0x0001b2f4        0x0 ../Ascensor_bsp/\libucosii_bsp.a(os_mem.o)
 .bss           0x0001b2f4        0x0 ../Ascensor_bsp/\libucosii_bsp.a(os_q.o)
 .bss           0x0001b2f4        0x0 ../Ascensor_bsp/\libucosii_bsp.a(os_sem.o)
 .bss           0x0001b2f4        0x0 ../Ascensor_bsp/\libucosii_bsp.a(os_task.o)
 .bss           0x0001b2f4        0x0 ../Ascensor_bsp/\libucosii_bsp.a(os_time.o)
 .bss           0x0001b2f4        0x0 ../Ascensor_bsp/\libucosii_bsp.a(alt_sys_init.o)
 .bss           0x0001b2f4        0x0 ../Ascensor_bsp/\libucosii_bsp.a(altera_avalon_jtag_uart_fd.o)
 .bss           0x0001b2f4        0x0 ../Ascensor_bsp/\libucosii_bsp.a(altera_avalon_jtag_uart_init.o)
 .bss           0x0001b2f4        0x0 ../Ascensor_bsp/\libucosii_bsp.a(altera_avalon_jtag_uart_ioctl.o)
 .bss           0x0001b2f4        0x0 ../Ascensor_bsp/\libucosii_bsp.a(altera_avalon_jtag_uart_read.o)
 .bss           0x0001b2f4        0x0 ../Ascensor_bsp/\libucosii_bsp.a(altera_avalon_jtag_uart_write.o)
 .bss           0x0001b2f4        0x0 ../Ascensor_bsp/\libucosii_bsp.a(altera_avalon_timer_sc.o)
 .bss           0x0001b2f4        0x0 ../Ascensor_bsp/\libucosii_bsp.a(altera_up_avalon_character_lcd.o)
 .bss           0x0001b2f4        0x0 ../Ascensor_bsp/\libucosii_bsp.a(alt_alarm_start.o)
 .bss           0x0001b2f4        0x0 ../Ascensor_bsp/\libucosii_bsp.a(alt_dcache_flush_all.o)
 .bss           0x0001b2f4        0x0 ../Ascensor_bsp/\libucosii_bsp.a(alt_dev_llist_insert.o)
 .bss           0x0001b2f4        0x0 ../Ascensor_bsp/\libucosii_bsp.a(alt_do_ctors.o)
 .bss           0x0001b2f4        0x0 ../Ascensor_bsp/\libucosii_bsp.a(alt_do_dtors.o)
 .bss           0x0001b2f4        0x0 ../Ascensor_bsp/\libucosii_bsp.a(alt_find_dev.o)
 .bss           0x0001b2f4        0x0 ../Ascensor_bsp/\libucosii_bsp.a(alt_icache_flush_all.o)
 .bss           0x0001b2f4        0x0 ../Ascensor_bsp/\libucosii_bsp.a(alt_io_redirect.o)
 .bss           0x0001b2f4        0x0 ../Ascensor_bsp/\libucosii_bsp.a(alt_irq_entry.o)
 .bss           0x0001b2f4        0x0 ../Ascensor_bsp/\libucosii_bsp.a(alt_irq_handler.o)
 .bss           0x0001b2f4        0x0 ../Ascensor_bsp/\libucosii_bsp.a(alt_open.o)
 .bss           0x0001b2f4        0x0 ../Ascensor_bsp/\libucosii_bsp.a(alt_tick.o)
 .bss           0x0001b2f4        0x0 ../Ascensor_bsp/\libucosii_bsp.a(altera_nios2_qsys_irq.o)
 .bss           0x0001b2f4        0x0 ../Ascensor_bsp/\libucosii_bsp.a(os_cpu_a.o)
 .bss           0x0001b2f4        0x0 ../Ascensor_bsp/\libucosii_bsp.a(os_cpu_c.o)
 .bss           0x0001b2f4        0x0 ../Ascensor_bsp/\libucosii_bsp.a(alt_exception_entry.o)
 .bss           0x0001b2f4        0x0 ../Ascensor_bsp/\libucosii_bsp.a(alt_find_file.o)
 .bss           0x0001b2f4        0x0 ../Ascensor_bsp/\libucosii_bsp.a(alt_get_fd.o)
 .bss           0x0001b2f4        0x0 ../Ascensor_bsp/\libucosii_bsp.a(alt_icache_flush.o)
 .bss           0x0001b2f4        0x0 c:/altera/13.0sp1/nios2eds/bin/gnu/h-i686-mingw32/bin/../lib/gcc/nios2-elf/4.1.2/../../../../nios2-elf/lib\libc.a(lib_a-atexit.o)
 .bss           0x0001b2f4        0x0 c:/altera/13.0sp1/nios2eds/bin/gnu/h-i686-mingw32/bin/../lib/gcc/nios2-elf/4.1.2/../../../../nios2-elf/lib\libc.a(lib_a-exit.o)
 .bss           0x0001b2f4        0x0 c:/altera/13.0sp1/nios2eds/bin/gnu/h-i686-mingw32/bin/../lib/gcc/nios2-elf/4.1.2/../../../../nios2-elf/lib\libc.a(lib_a-memcmp.o)
 .bss           0x0001b2f4        0x0 c:/altera/13.0sp1/nios2eds/bin/gnu/h-i686-mingw32/bin/../lib/gcc/nios2-elf/4.1.2/../../../../nios2-elf/lib\libc.a(lib_a-__atexit.o)
 .bss           0x0001b2f4        0x0 c:/altera/13.0sp1/nios2eds/bin/gnu/h-i686-mingw32/bin/../lib/gcc/nios2-elf/4.1.2/../../../../nios2-elf/lib\libc.a(lib_a-__call_atexit.o)
 .bss           0x0001b2f4        0x0 c:/altera/13.0sp1/nios2eds/bin/gnu/h-i686-mingw32/bin/../lib/gcc/nios2-elf/4.1.2\libgcc.a(_fixunsdfsi.o)
 .bss           0x0001b2f4        0x0 ../Ascensor_bsp/\libucosii_bsp.a(alt_exit.o)
 *(COMMON)
 COMMON         0x0001b2f4    0x14000 obj/default/hello_ucosii.o
                0x0001b2f4                control_stk
                0x0001f2f4                visualizacion_stk
                0x000232f4                teclado_stk
                0x000272f4                moduloseguridad_stk
                0x0002b2f4                cabina_stk
 COMMON         0x0002f2f4     0x3224 ../Ascensor_bsp/\libucosii_bsp.a(os_core.o)
                0x0002f2f4                OSFlagTbl
                0x0002f664                OSMemTbl
                0x00030294                OSTaskStatStk
                0x00030a94                OSQTbl
                0x00030c74                OSTaskIdleStk
                0x00031474                OSEventTbl
                0x00031fb4                OSTCBTbl
                0x000324c4                OSTCBPrioTbl
 COMMON         0x00032518      0x100 ../Ascensor_bsp/\libucosii_bsp.a(alt_irq_handler.o)
                0x00032518                alt_irq
 COMMON         0x00032618      0x190 c:/altera/13.0sp1/nios2eds/bin/gnu/h-i686-mingw32/bin/../lib/gcc/nios2-elf/4.1.2/../../../../nios2-elf/lib\libc.a(lib_a-atexit.o)
                0x00032618                _atexit0
                0x000327a8                . = ALIGN (0x4)
                0x000327a8                __bss_end = ABSOLUTE (.)

.sdram          0x000327a8        0x0
                0x000327a8                PROVIDE (_alt_partition_sdram_start, ABSOLUTE (.))
 *(.sdram. sdram.*)
                0x000327a8                . = ALIGN (0x4)
                0x000327a8                PROVIDE (_alt_partition_sdram_end, ABSOLUTE (.))
                0x000327a8                _end = ABSOLUTE (.)
                0x000327a8                end = ABSOLUTE (.)
                0x000327a8                __alt_stack_base = ABSOLUTE (.)
                0x000327a8                PROVIDE (_alt_partition_sdram_load_addr, LOADADDR (.sdram))

.onchip_memory  0x08200000        0x0 load address 0x000327a8
                0x08200000                PROVIDE (_alt_partition_onchip_memory_start, ABSOLUTE (.))
 *(.onchip_memory. onchip_memory.*)
                0x08200000                . = ALIGN (0x4)
                0x08200000                PROVIDE (_alt_partition_onchip_memory_end, ABSOLUTE (.))
                0x000327a8                PROVIDE (_alt_partition_onchip_memory_load_addr, LOADADDR (.onchip_memory))

.flash_controller
                0x08800000        0x0 load address 0x000327a8
                0x08800000                PROVIDE (_alt_partition_flash_controller_start, ABSOLUTE (.))
 *(.flash_controller. flash_controller.*)
                0x08800000                . = ALIGN (0x4)
                0x08800000                PROVIDE (_alt_partition_flash_controller_end, ABSOLUTE (.))
                0x000327a8                PROVIDE (_alt_partition_flash_controller_load_addr, LOADADDR (.flash_controller))

.stab
 *(.stab)

.stabstr
 *(.stabstr)

.stab.excl
 *(.stab.excl)

.stab.exclstr
 *(.stab.exclstr)

.stab.index
 *(.stab.index)

.stab.indexstr
 *(.stab.indexstr)

.comment        0x00000000       0x26
 *(.comment)
 .comment       0x00000000       0x26 obj/default/hello_ucosii.o
                                 0x27 (size before relaxing)
 .comment       0x00000000       0x27 c:/altera/13.0sp1/nios2eds/bin/gnu/h-i686-mingw32/bin/../lib/gcc/nios2-elf/4.1.2/../../../../nios2-elf/lib\libc.a(lib_a-printf.o)
 .comment       0x00000000       0x27 c:/altera/13.0sp1/nios2eds/bin/gnu/h-i686-mingw32/bin/../lib/gcc/nios2-elf/4.1.2/../../../../nios2-elf/lib\libc.a(lib_a-puts.o)
 .comment       0x00000000       0x27 c:/altera/13.0sp1/nios2eds/bin/gnu/h-i686-mingw32/bin/../lib/gcc/nios2-elf/4.1.2/../../../../nios2-elf/lib\libc.a(lib_a-sprintf.o)
 .comment       0x00000000       0x27 c:/altera/13.0sp1/nios2eds/bin/gnu/h-i686-mingw32/bin/../lib/gcc/nios2-elf/4.1.2/../../../../nios2-elf/lib\libc.a(lib_a-strlen.o)
 .comment       0x00000000       0x27 c:/altera/13.0sp1/nios2eds/bin/gnu/h-i686-mingw32/bin/../lib/gcc/nios2-elf/4.1.2/../../../../nios2-elf/lib\libc.a(lib_a-vfprintf.o)
 .comment       0x00000000       0x27 c:/altera/13.0sp1/nios2eds/bin/gnu/h-i686-mingw32/bin/../lib/gcc/nios2-elf/4.1.2/../../../../nios2-elf/lib\libc.a(lib_a-wsetup.o)
 .comment       0x00000000       0x27 c:/altera/13.0sp1/nios2eds/bin/gnu/h-i686-mingw32/bin/../lib/gcc/nios2-elf/4.1.2/../../../../nios2-elf/lib\libc.a(lib_a-dtoa.o)
 .comment       0x00000000       0x27 c:/altera/13.0sp1/nios2eds/bin/gnu/h-i686-mingw32/bin/../lib/gcc/nios2-elf/4.1.2/../../../../nios2-elf/lib\libc.a(lib_a-fflush.o)
 .comment       0x00000000       0x27 c:/altera/13.0sp1/nios2eds/bin/gnu/h-i686-mingw32/bin/../lib/gcc/nios2-elf/4.1.2/../../../../nios2-elf/lib\libc.a(lib_a-findfp.o)
 .comment       0x00000000       0x27 c:/altera/13.0sp1/nios2eds/bin/gnu/h-i686-mingw32/bin/../lib/gcc/nios2-elf/4.1.2/../../../../nios2-elf/lib\libc.a(lib_a-freer.o)
 .comment       0x00000000       0x27 c:/altera/13.0sp1/nios2eds/bin/gnu/h-i686-mingw32/bin/../lib/gcc/nios2-elf/4.1.2/../../../../nios2-elf/lib\libc.a(lib_a-fvwrite.o)
 .comment       0x00000000       0x27 c:/altera/13.0sp1/nios2eds/bin/gnu/h-i686-mingw32/bin/../lib/gcc/nios2-elf/4.1.2/../../../../nios2-elf/lib\libc.a(lib_a-fwalk.o)
 .comment       0x00000000       0x27 c:/altera/13.0sp1/nios2eds/bin/gnu/h-i686-mingw32/bin/../lib/gcc/nios2-elf/4.1.2/../../../../nios2-elf/lib\libc.a(lib_a-impure.o)
 .comment       0x00000000       0x27 c:/altera/13.0sp1/nios2eds/bin/gnu/h-i686-mingw32/bin/../lib/gcc/nios2-elf/4.1.2/../../../../nios2-elf/lib\libc.a(lib_a-locale.o)
 .comment       0x00000000       0x27 c:/altera/13.0sp1/nios2eds/bin/gnu/h-i686-mingw32/bin/../lib/gcc/nios2-elf/4.1.2/../../../../nios2-elf/lib\libc.a(lib_a-makebuf.o)
 .comment       0x00000000       0x27 c:/altera/13.0sp1/nios2eds/bin/gnu/h-i686-mingw32/bin/../lib/gcc/nios2-elf/4.1.2/../../../../nios2-elf/lib\libc.a(lib_a-mallocr.o)
 .comment       0x00000000       0x27 c:/altera/13.0sp1/nios2eds/bin/gnu/h-i686-mingw32/bin/../lib/gcc/nios2-elf/4.1.2/../../../../nios2-elf/lib\libc.a(lib_a-memchr.o)
 .comment       0x00000000       0x27 c:/altera/13.0sp1/nios2eds/bin/gnu/h-i686-mingw32/bin/../lib/gcc/nios2-elf/4.1.2/../../../../nios2-elf/lib\libc.a(lib_a-memcpy.o)
 .comment       0x00000000       0x27 c:/altera/13.0sp1/nios2eds/bin/gnu/h-i686-mingw32/bin/../lib/gcc/nios2-elf/4.1.2/../../../../nios2-elf/lib\libc.a(lib_a-memmove.o)
 .comment       0x00000000       0x27 c:/altera/13.0sp1/nios2eds/bin/gnu/h-i686-mingw32/bin/../lib/gcc/nios2-elf/4.1.2/../../../../nios2-elf/lib\libc.a(lib_a-memset.o)
 .comment       0x00000000       0x27 c:/altera/13.0sp1/nios2eds/bin/gnu/h-i686-mingw32/bin/../lib/gcc/nios2-elf/4.1.2/../../../../nios2-elf/lib\libc.a(lib_a-mprec.o)
 .comment       0x00000000       0x27 c:/altera/13.0sp1/nios2eds/bin/gnu/h-i686-mingw32/bin/../lib/gcc/nios2-elf/4.1.2/../../../../nios2-elf/lib\libc.a(lib_a-reallocr.o)
 .comment       0x00000000       0x27 c:/altera/13.0sp1/nios2eds/bin/gnu/h-i686-mingw32/bin/../lib/gcc/nios2-elf/4.1.2/../../../../nios2-elf/lib\libc.a(lib_a-s_isinfd.o)
 .comment       0x00000000       0x27 c:/altera/13.0sp1/nios2eds/bin/gnu/h-i686-mingw32/bin/../lib/gcc/nios2-elf/4.1.2/../../../../nios2-elf/lib\libc.a(lib_a-s_isnand.o)
 .comment       0x00000000       0x27 c:/altera/13.0sp1/nios2eds/bin/gnu/h-i686-mingw32/bin/../lib/gcc/nios2-elf/4.1.2/../../../../nios2-elf/lib\libc.a(lib_a-sbrkr.o)
 .comment       0x00000000       0x27 c:/altera/13.0sp1/nios2eds/bin/gnu/h-i686-mingw32/bin/../lib/gcc/nios2-elf/4.1.2/../../../../nios2-elf/lib\libc.a(lib_a-stdio.o)
 .comment       0x00000000       0x27 c:/altera/13.0sp1/nios2eds/bin/gnu/h-i686-mingw32/bin/../lib/gcc/nios2-elf/4.1.2/../../../../nios2-elf/lib\libc.a(lib_a-strcmp.o)
 .comment       0x00000000       0x27 c:/altera/13.0sp1/nios2eds/bin/gnu/h-i686-mingw32/bin/../lib/gcc/nios2-elf/4.1.2/../../../../nios2-elf/lib\libc.a(lib_a-writer.o)
 .comment       0x00000000       0x27 c:/altera/13.0sp1/nios2eds/bin/gnu/h-i686-mingw32/bin/../lib/gcc/nios2-elf/4.1.2/../../../../nios2-elf/lib\libc.a(lib_a-callocr.o)
 .comment       0x00000000       0x27 c:/altera/13.0sp1/nios2eds/bin/gnu/h-i686-mingw32/bin/../lib/gcc/nios2-elf/4.1.2/../../../../nios2-elf/lib\libc.a(lib_a-closer.o)
 .comment       0x00000000       0x27 c:/altera/13.0sp1/nios2eds/bin/gnu/h-i686-mingw32/bin/../lib/gcc/nios2-elf/4.1.2/../../../../nios2-elf/lib\libc.a(lib_a-fclose.o)
 .comment       0x00000000       0x27 c:/altera/13.0sp1/nios2eds/bin/gnu/h-i686-mingw32/bin/../lib/gcc/nios2-elf/4.1.2/../../../../nios2-elf/lib\libc.a(lib_a-fstatr.o)
 .comment       0x00000000       0x27 c:/altera/13.0sp1/nios2eds/bin/gnu/h-i686-mingw32/bin/../lib/gcc/nios2-elf/4.1.2/../../../../nios2-elf/lib\libc.a(lib_a-int_errno.o)
 .comment       0x00000000       0x27 c:/altera/13.0sp1/nios2eds/bin/gnu/h-i686-mingw32/bin/../lib/gcc/nios2-elf/4.1.2/../../../../nios2-elf/lib\libc.a(lib_a-isattyr.o)
 .comment       0x00000000       0x27 c:/altera/13.0sp1/nios2eds/bin/gnu/h-i686-mingw32/bin/../lib/gcc/nios2-elf/4.1.2/../../../../nios2-elf/lib\libc.a(lib_a-lseekr.o)
 .comment       0x00000000       0x27 c:/altera/13.0sp1/nios2eds/bin/gnu/h-i686-mingw32/bin/../lib/gcc/nios2-elf/4.1.2/../../../../nios2-elf/lib\libc.a(lib_a-readr.o)
 .comment       0x00000000       0x27 c:/altera/13.0sp1/nios2eds/bin/gnu/h-i686-mingw32/bin/../lib/gcc/nios2-elf/4.1.2\libgcc.a(_udivdi3.o)
 .comment       0x00000000       0x27 c:/altera/13.0sp1/nios2eds/bin/gnu/h-i686-mingw32/bin/../lib/gcc/nios2-elf/4.1.2\libgcc.a(_umoddi3.o)
 .comment       0x00000000       0x27 c:/altera/13.0sp1/nios2eds/bin/gnu/h-i686-mingw32/bin/../lib/gcc/nios2-elf/4.1.2\libgcc.a(_addsub_df.o)
 .comment       0x00000000       0x27 c:/altera/13.0sp1/nios2eds/bin/gnu/h-i686-mingw32/bin/../lib/gcc/nios2-elf/4.1.2\libgcc.a(_mul_df.o)
 .comment       0x00000000       0x27 c:/altera/13.0sp1/nios2eds/bin/gnu/h-i686-mingw32/bin/../lib/gcc/nios2-elf/4.1.2\libgcc.a(_div_df.o)
 .comment       0x00000000       0x27 c:/altera/13.0sp1/nios2eds/bin/gnu/h-i686-mingw32/bin/../lib/gcc/nios2-elf/4.1.2\libgcc.a(_eq_df.o)
 .comment       0x00000000       0x27 c:/altera/13.0sp1/nios2eds/bin/gnu/h-i686-mingw32/bin/../lib/gcc/nios2-elf/4.1.2\libgcc.a(_ne_df.o)
 .comment       0x00000000       0x27 c:/altera/13.0sp1/nios2eds/bin/gnu/h-i686-mingw32/bin/../lib/gcc/nios2-elf/4.1.2\libgcc.a(_gt_df.o)
 .comment       0x00000000       0x27 c:/altera/13.0sp1/nios2eds/bin/gnu/h-i686-mingw32/bin/../lib/gcc/nios2-elf/4.1.2\libgcc.a(_ge_df.o)
 .comment       0x00000000       0x27 c:/altera/13.0sp1/nios2eds/bin/gnu/h-i686-mingw32/bin/../lib/gcc/nios2-elf/4.1.2\libgcc.a(_lt_df.o)
 .comment       0x00000000       0x27 c:/altera/13.0sp1/nios2eds/bin/gnu/h-i686-mingw32/bin/../lib/gcc/nios2-elf/4.1.2\libgcc.a(_si_to_df.o)
 .comment       0x00000000       0x27 c:/altera/13.0sp1/nios2eds/bin/gnu/h-i686-mingw32/bin/../lib/gcc/nios2-elf/4.1.2\libgcc.a(_df_to_si.o)
 .comment       0x00000000       0x27 c:/altera/13.0sp1/nios2eds/bin/gnu/h-i686-mingw32/bin/../lib/gcc/nios2-elf/4.1.2\libgcc.a(_thenan_df.o)
 .comment       0x00000000       0x27 c:/altera/13.0sp1/nios2eds/bin/gnu/h-i686-mingw32/bin/../lib/gcc/nios2-elf/4.1.2\libgcc.a(_usi_to_df.o)
 .comment       0x00000000       0x27 c:/altera/13.0sp1/nios2eds/bin/gnu/h-i686-mingw32/bin/../lib/gcc/nios2-elf/4.1.2\libgcc.a(lib2-divmod.o)
 .comment       0x00000000       0x27 c:/altera/13.0sp1/nios2eds/bin/gnu/h-i686-mingw32/bin/../lib/gcc/nios2-elf/4.1.2\libgcc.a(_muldi3.o)
 .comment       0x00000000       0x27 c:/altera/13.0sp1/nios2eds/bin/gnu/h-i686-mingw32/bin/../lib/gcc/nios2-elf/4.1.2\libgcc.a(_clz.o)
 .comment       0x00000000       0x27 c:/altera/13.0sp1/nios2eds/bin/gnu/h-i686-mingw32/bin/../lib/gcc/nios2-elf/4.1.2\libgcc.a(_clzsi2.o)
 .comment       0x00000000       0x27 c:/altera/13.0sp1/nios2eds/bin/gnu/h-i686-mingw32/bin/../lib/gcc/nios2-elf/4.1.2\libgcc.a(_pack_df.o)
 .comment       0x00000000       0x27 c:/altera/13.0sp1/nios2eds/bin/gnu/h-i686-mingw32/bin/../lib/gcc/nios2-elf/4.1.2\libgcc.a(_unpack_df.o)
 .comment       0x00000000       0x27 c:/altera/13.0sp1/nios2eds/bin/gnu/h-i686-mingw32/bin/../lib/gcc/nios2-elf/4.1.2\libgcc.a(_fpcmp_parts_df.o)
 .comment       0x00000000       0x27 ../Ascensor_bsp/\libucosii_bsp.a(alt_close.o)
 .comment       0x00000000       0x27 ../Ascensor_bsp/\libucosii_bsp.a(alt_dev.o)
 .comment       0x00000000       0x27 ../Ascensor_bsp/\libucosii_bsp.a(alt_errno.o)
 .comment       0x00000000       0x27 ../Ascensor_bsp/\libucosii_bsp.a(alt_fstat.o)
 .comment       0x00000000       0x27 ../Ascensor_bsp/\libucosii_bsp.a(alt_irq_register.o)
 .comment       0x00000000       0x27 ../Ascensor_bsp/\libucosii_bsp.a(alt_irq_vars.o)
 .comment       0x00000000       0x27 ../Ascensor_bsp/\libucosii_bsp.a(alt_isatty.o)
 .comment       0x00000000       0x27 ../Ascensor_bsp/\libucosii_bsp.a(alt_load.o)
 .comment       0x00000000       0x27 ../Ascensor_bsp/\libucosii_bsp.a(alt_lseek.o)
 .comment       0x00000000       0x27 ../Ascensor_bsp/\libucosii_bsp.a(alt_main.o)
 .comment       0x00000000       0x27 ../Ascensor_bsp/\libucosii_bsp.a(alt_read.o)
 .comment       0x00000000       0x27 ../Ascensor_bsp/\libucosii_bsp.a(alt_release_fd.o)
 .comment       0x00000000       0x27 ../Ascensor_bsp/\libucosii_bsp.a(alt_sbrk.o)
 .comment       0x00000000       0x27 ../Ascensor_bsp/\libucosii_bsp.a(alt_write.o)
 .comment       0x00000000       0x27 ../Ascensor_bsp/\libucosii_bsp.a(alt_env_lock.o)
 .comment       0x00000000       0x27 ../Ascensor_bsp/\libucosii_bsp.a(alt_malloc_lock.o)
 .comment       0x00000000       0x27 ../Ascensor_bsp/\libucosii_bsp.a(os_core.o)
 .comment       0x00000000       0x27 ../Ascensor_bsp/\libucosii_bsp.a(os_dbg.o)
 .comment       0x00000000       0x27 ../Ascensor_bsp/\libucosii_bsp.a(os_flag.o)
 .comment       0x00000000       0x27 ../Ascensor_bsp/\libucosii_bsp.a(os_mbox.o)
 .comment       0x00000000       0x27 ../Ascensor_bsp/\libucosii_bsp.a(os_mem.o)
 .comment       0x00000000       0x27 ../Ascensor_bsp/\libucosii_bsp.a(os_q.o)
 .comment       0x00000000       0x27 ../Ascensor_bsp/\libucosii_bsp.a(os_sem.o)
 .comment       0x00000000       0x27 ../Ascensor_bsp/\libucosii_bsp.a(os_task.o)
 .comment       0x00000000       0x27 ../Ascensor_bsp/\libucosii_bsp.a(os_time.o)
 .comment       0x00000000       0x27 ../Ascensor_bsp/\libucosii_bsp.a(alt_sys_init.o)
 .comment       0x00000000       0x27 ../Ascensor_bsp/\libucosii_bsp.a(altera_avalon_jtag_uart_fd.o)
 .comment       0x00000000       0x27 ../Ascensor_bsp/\libucosii_bsp.a(altera_avalon_jtag_uart_init.o)
 .comment       0x00000000       0x27 ../Ascensor_bsp/\libucosii_bsp.a(altera_avalon_jtag_uart_ioctl.o)
 .comment       0x00000000       0x27 ../Ascensor_bsp/\libucosii_bsp.a(altera_avalon_jtag_uart_read.o)
 .comment       0x00000000       0x27 ../Ascensor_bsp/\libucosii_bsp.a(altera_avalon_jtag_uart_write.o)
 .comment       0x00000000       0x27 ../Ascensor_bsp/\libucosii_bsp.a(altera_avalon_timer_sc.o)
 .comment       0x00000000       0x27 ../Ascensor_bsp/\libucosii_bsp.a(altera_up_avalon_character_lcd.o)
 .comment       0x00000000       0x27 ../Ascensor_bsp/\libucosii_bsp.a(alt_alarm_start.o)
 .comment       0x00000000       0x27 ../Ascensor_bsp/\libucosii_bsp.a(alt_dcache_flush_all.o)
 .comment       0x00000000       0x27 ../Ascensor_bsp/\libucosii_bsp.a(alt_dev_llist_insert.o)
 .comment       0x00000000       0x27 ../Ascensor_bsp/\libucosii_bsp.a(alt_do_ctors.o)
 .comment       0x00000000       0x27 ../Ascensor_bsp/\libucosii_bsp.a(alt_do_dtors.o)
 .comment       0x00000000       0x27 ../Ascensor_bsp/\libucosii_bsp.a(alt_find_dev.o)
 .comment       0x00000000       0x27 ../Ascensor_bsp/\libucosii_bsp.a(alt_icache_flush_all.o)
 .comment       0x00000000       0x27 ../Ascensor_bsp/\libucosii_bsp.a(alt_io_redirect.o)
 .comment       0x00000000       0x27 ../Ascensor_bsp/\libucosii_bsp.a(alt_irq_handler.o)
 .comment       0x00000000       0x27 ../Ascensor_bsp/\libucosii_bsp.a(alt_open.o)
 .comment       0x00000000       0x27 ../Ascensor_bsp/\libucosii_bsp.a(alt_tick.o)
 .comment       0x00000000       0x27 ../Ascensor_bsp/\libucosii_bsp.a(altera_nios2_qsys_irq.o)
 .comment       0x00000000       0x27 ../Ascensor_bsp/\libucosii_bsp.a(os_cpu_c.o)
 .comment       0x00000000       0x27 ../Ascensor_bsp/\libucosii_bsp.a(alt_find_file.o)
 .comment       0x00000000       0x27 ../Ascensor_bsp/\libucosii_bsp.a(alt_get_fd.o)
 .comment       0x00000000       0x27 ../Ascensor_bsp/\libucosii_bsp.a(alt_icache_flush.o)
 .comment       0x00000000       0x27 c:/altera/13.0sp1/nios2eds/bin/gnu/h-i686-mingw32/bin/../lib/gcc/nios2-elf/4.1.2/../../../../nios2-elf/lib\libc.a(lib_a-atexit.o)
 .comment       0x00000000       0x27 c:/altera/13.0sp1/nios2eds/bin/gnu/h-i686-mingw32/bin/../lib/gcc/nios2-elf/4.1.2/../../../../nios2-elf/lib\libc.a(lib_a-exit.o)
 .comment       0x00000000       0x27 c:/altera/13.0sp1/nios2eds/bin/gnu/h-i686-mingw32/bin/../lib/gcc/nios2-elf/4.1.2/../../../../nios2-elf/lib\libc.a(lib_a-memcmp.o)
 .comment       0x00000000       0x27 c:/altera/13.0sp1/nios2eds/bin/gnu/h-i686-mingw32/bin/../lib/gcc/nios2-elf/4.1.2/../../../../nios2-elf/lib\libc.a(lib_a-__atexit.o)
 .comment       0x00000000       0x27 c:/altera/13.0sp1/nios2eds/bin/gnu/h-i686-mingw32/bin/../lib/gcc/nios2-elf/4.1.2/../../../../nios2-elf/lib\libc.a(lib_a-__call_atexit.o)
 .comment       0x00000000       0x27 c:/altera/13.0sp1/nios2eds/bin/gnu/h-i686-mingw32/bin/../lib/gcc/nios2-elf/4.1.2\libgcc.a(_fixunsdfsi.o)
 .comment       0x00000000       0x27 ../Ascensor_bsp/\libucosii_bsp.a(alt_exit.o)

.debug
 *(.debug)

.line
 *(.line)

.debug_srcinfo
 *(.debug_srcinfo)

.debug_sfnames
 *(.debug_sfnames)

.debug_aranges  0x00000000      0xe38
 *(.debug_aranges)
 .debug_aranges
                0x00000000       0x28 ../Ascensor_bsp//obj/HAL/src/crt0.o
 .debug_aranges
                0x00000028       0x20 obj/default/hello_ucosii.o
 .debug_aranges
                0x00000048       0x20 c:/altera/13.0sp1/nios2eds/bin/gnu/h-i686-mingw32/bin/../lib/gcc/nios2-elf/4.1.2/../../../../nios2-elf/lib\libc.a(lib_a-printf.o)
 .debug_aranges
                0x00000068       0x20 c:/altera/13.0sp1/nios2eds/bin/gnu/h-i686-mingw32/bin/../lib/gcc/nios2-elf/4.1.2/../../../../nios2-elf/lib\libc.a(lib_a-puts.o)
 .debug_aranges
                0x00000088       0x20 c:/altera/13.0sp1/nios2eds/bin/gnu/h-i686-mingw32/bin/../lib/gcc/nios2-elf/4.1.2/../../../../nios2-elf/lib\libc.a(lib_a-sprintf.o)
 .debug_aranges
                0x000000a8       0x20 c:/altera/13.0sp1/nios2eds/bin/gnu/h-i686-mingw32/bin/../lib/gcc/nios2-elf/4.1.2/../../../../nios2-elf/lib\libc.a(lib_a-strlen.o)
 .debug_aranges
                0x000000c8       0x20 c:/altera/13.0sp1/nios2eds/bin/gnu/h-i686-mingw32/bin/../lib/gcc/nios2-elf/4.1.2/../../../../nios2-elf/lib\libc.a(lib_a-vfprintf.o)
 .debug_aranges
                0x000000e8       0x20 c:/altera/13.0sp1/nios2eds/bin/gnu/h-i686-mingw32/bin/../lib/gcc/nios2-elf/4.1.2/../../../../nios2-elf/lib\libc.a(lib_a-wsetup.o)
 .debug_aranges
                0x00000108       0x20 c:/altera/13.0sp1/nios2eds/bin/gnu/h-i686-mingw32/bin/../lib/gcc/nios2-elf/4.1.2/../../../../nios2-elf/lib\libc.a(lib_a-dtoa.o)
 .debug_aranges
                0x00000128       0x20 c:/altera/13.0sp1/nios2eds/bin/gnu/h-i686-mingw32/bin/../lib/gcc/nios2-elf/4.1.2/../../../../nios2-elf/lib\libc.a(lib_a-fflush.o)
 .debug_aranges
                0x00000148       0x20 c:/altera/13.0sp1/nios2eds/bin/gnu/h-i686-mingw32/bin/../lib/gcc/nios2-elf/4.1.2/../../../../nios2-elf/lib\libc.a(lib_a-findfp.o)
 .debug_aranges
                0x00000168       0x20 c:/altera/13.0sp1/nios2eds/bin/gnu/h-i686-mingw32/bin/../lib/gcc/nios2-elf/4.1.2/../../../../nios2-elf/lib\libc.a(lib_a-freer.o)
 .debug_aranges
                0x00000188       0x20 c:/altera/13.0sp1/nios2eds/bin/gnu/h-i686-mingw32/bin/../lib/gcc/nios2-elf/4.1.2/../../../../nios2-elf/lib\libc.a(lib_a-fvwrite.o)
 .debug_aranges
                0x000001a8       0x20 c:/altera/13.0sp1/nios2eds/bin/gnu/h-i686-mingw32/bin/../lib/gcc/nios2-elf/4.1.2/../../../../nios2-elf/lib\libc.a(lib_a-fwalk.o)
 .debug_aranges
                0x000001c8       0x20 c:/altera/13.0sp1/nios2eds/bin/gnu/h-i686-mingw32/bin/../lib/gcc/nios2-elf/4.1.2/../../../../nios2-elf/lib\libc.a(lib_a-locale.o)
 .debug_aranges
                0x000001e8       0x20 c:/altera/13.0sp1/nios2eds/bin/gnu/h-i686-mingw32/bin/../lib/gcc/nios2-elf/4.1.2/../../../../nios2-elf/lib\libc.a(lib_a-makebuf.o)
 .debug_aranges
                0x00000208       0x20 c:/altera/13.0sp1/nios2eds/bin/gnu/h-i686-mingw32/bin/../lib/gcc/nios2-elf/4.1.2/../../../../nios2-elf/lib\libc.a(lib_a-mallocr.o)
 .debug_aranges
                0x00000228       0x20 c:/altera/13.0sp1/nios2eds/bin/gnu/h-i686-mingw32/bin/../lib/gcc/nios2-elf/4.1.2/../../../../nios2-elf/lib\libc.a(lib_a-memchr.o)
 .debug_aranges
                0x00000248       0x20 c:/altera/13.0sp1/nios2eds/bin/gnu/h-i686-mingw32/bin/../lib/gcc/nios2-elf/4.1.2/../../../../nios2-elf/lib\libc.a(lib_a-memcpy.o)
 .debug_aranges
                0x00000268       0x20 c:/altera/13.0sp1/nios2eds/bin/gnu/h-i686-mingw32/bin/../lib/gcc/nios2-elf/4.1.2/../../../../nios2-elf/lib\libc.a(lib_a-memmove.o)
 .debug_aranges
                0x00000288       0x20 c:/altera/13.0sp1/nios2eds/bin/gnu/h-i686-mingw32/bin/../lib/gcc/nios2-elf/4.1.2/../../../../nios2-elf/lib\libc.a(lib_a-memset.o)
 .debug_aranges
                0x000002a8       0x20 c:/altera/13.0sp1/nios2eds/bin/gnu/h-i686-mingw32/bin/../lib/gcc/nios2-elf/4.1.2/../../../../nios2-elf/lib\libc.a(lib_a-mprec.o)
 .debug_aranges
                0x000002c8       0x20 c:/altera/13.0sp1/nios2eds/bin/gnu/h-i686-mingw32/bin/../lib/gcc/nios2-elf/4.1.2/../../../../nios2-elf/lib\libc.a(lib_a-reallocr.o)
 .debug_aranges
                0x000002e8       0x20 c:/altera/13.0sp1/nios2eds/bin/gnu/h-i686-mingw32/bin/../lib/gcc/nios2-elf/4.1.2/../../../../nios2-elf/lib\libc.a(lib_a-s_isinfd.o)
 .debug_aranges
                0x00000308       0x20 c:/altera/13.0sp1/nios2eds/bin/gnu/h-i686-mingw32/bin/../lib/gcc/nios2-elf/4.1.2/../../../../nios2-elf/lib\libc.a(lib_a-s_isnand.o)
 .debug_aranges
                0x00000328       0x20 c:/altera/13.0sp1/nios2eds/bin/gnu/h-i686-mingw32/bin/../lib/gcc/nios2-elf/4.1.2/../../../../nios2-elf/lib\libc.a(lib_a-sbrkr.o)
 .debug_aranges
                0x00000348       0x20 c:/altera/13.0sp1/nios2eds/bin/gnu/h-i686-mingw32/bin/../lib/gcc/nios2-elf/4.1.2/../../../../nios2-elf/lib\libc.a(lib_a-stdio.o)
 .debug_aranges
                0x00000368       0x20 c:/altera/13.0sp1/nios2eds/bin/gnu/h-i686-mingw32/bin/../lib/gcc/nios2-elf/4.1.2/../../../../nios2-elf/lib\libc.a(lib_a-strcmp.o)
 .debug_aranges
                0x00000388       0x20 c:/altera/13.0sp1/nios2eds/bin/gnu/h-i686-mingw32/bin/../lib/gcc/nios2-elf/4.1.2/../../../../nios2-elf/lib\libc.a(lib_a-writer.o)
 .debug_aranges
                0x000003a8       0x20 c:/altera/13.0sp1/nios2eds/bin/gnu/h-i686-mingw32/bin/../lib/gcc/nios2-elf/4.1.2/../../../../nios2-elf/lib\libc.a(lib_a-callocr.o)
 .debug_aranges
                0x000003c8       0x20 c:/altera/13.0sp1/nios2eds/bin/gnu/h-i686-mingw32/bin/../lib/gcc/nios2-elf/4.1.2/../../../../nios2-elf/lib\libc.a(lib_a-closer.o)
 .debug_aranges
                0x000003e8       0x20 c:/altera/13.0sp1/nios2eds/bin/gnu/h-i686-mingw32/bin/../lib/gcc/nios2-elf/4.1.2/../../../../nios2-elf/lib\libc.a(lib_a-fclose.o)
 .debug_aranges
                0x00000408       0x20 c:/altera/13.0sp1/nios2eds/bin/gnu/h-i686-mingw32/bin/../lib/gcc/nios2-elf/4.1.2/../../../../nios2-elf/lib\libc.a(lib_a-fstatr.o)
 .debug_aranges
                0x00000428       0x20 c:/altera/13.0sp1/nios2eds/bin/gnu/h-i686-mingw32/bin/../lib/gcc/nios2-elf/4.1.2/../../../../nios2-elf/lib\libc.a(lib_a-isattyr.o)
 .debug_aranges
                0x00000448       0x20 c:/altera/13.0sp1/nios2eds/bin/gnu/h-i686-mingw32/bin/../lib/gcc/nios2-elf/4.1.2/../../../../nios2-elf/lib\libc.a(lib_a-lseekr.o)
 .debug_aranges
                0x00000468       0x20 c:/altera/13.0sp1/nios2eds/bin/gnu/h-i686-mingw32/bin/../lib/gcc/nios2-elf/4.1.2/../../../../nios2-elf/lib\libc.a(lib_a-readr.o)
 .debug_aranges
                0x00000488       0x20 c:/altera/13.0sp1/nios2eds/bin/gnu/h-i686-mingw32/bin/../lib/gcc/nios2-elf/4.1.2\libgcc.a(_udivdi3.o)
 .debug_aranges
                0x000004a8       0x20 c:/altera/13.0sp1/nios2eds/bin/gnu/h-i686-mingw32/bin/../lib/gcc/nios2-elf/4.1.2\libgcc.a(_umoddi3.o)
 .debug_aranges
                0x000004c8       0x20 c:/altera/13.0sp1/nios2eds/bin/gnu/h-i686-mingw32/bin/../lib/gcc/nios2-elf/4.1.2\libgcc.a(_addsub_df.o)
 .debug_aranges
                0x000004e8       0x20 c:/altera/13.0sp1/nios2eds/bin/gnu/h-i686-mingw32/bin/../lib/gcc/nios2-elf/4.1.2\libgcc.a(_mul_df.o)
 .debug_aranges
                0x00000508       0x20 c:/altera/13.0sp1/nios2eds/bin/gnu/h-i686-mingw32/bin/../lib/gcc/nios2-elf/4.1.2\libgcc.a(_div_df.o)
 .debug_aranges
                0x00000528       0x20 c:/altera/13.0sp1/nios2eds/bin/gnu/h-i686-mingw32/bin/../lib/gcc/nios2-elf/4.1.2\libgcc.a(_eq_df.o)
 .debug_aranges
                0x00000548       0x20 c:/altera/13.0sp1/nios2eds/bin/gnu/h-i686-mingw32/bin/../lib/gcc/nios2-elf/4.1.2\libgcc.a(_ne_df.o)
 .debug_aranges
                0x00000568       0x20 c:/altera/13.0sp1/nios2eds/bin/gnu/h-i686-mingw32/bin/../lib/gcc/nios2-elf/4.1.2\libgcc.a(_gt_df.o)
 .debug_aranges
                0x00000588       0x20 c:/altera/13.0sp1/nios2eds/bin/gnu/h-i686-mingw32/bin/../lib/gcc/nios2-elf/4.1.2\libgcc.a(_ge_df.o)
 .debug_aranges
                0x000005a8       0x20 c:/altera/13.0sp1/nios2eds/bin/gnu/h-i686-mingw32/bin/../lib/gcc/nios2-elf/4.1.2\libgcc.a(_lt_df.o)
 .debug_aranges
                0x000005c8       0x20 c:/altera/13.0sp1/nios2eds/bin/gnu/h-i686-mingw32/bin/../lib/gcc/nios2-elf/4.1.2\libgcc.a(_si_to_df.o)
 .debug_aranges
                0x000005e8       0x20 c:/altera/13.0sp1/nios2eds/bin/gnu/h-i686-mingw32/bin/../lib/gcc/nios2-elf/4.1.2\libgcc.a(_df_to_si.o)
 .debug_aranges
                0x00000608       0x20 c:/altera/13.0sp1/nios2eds/bin/gnu/h-i686-mingw32/bin/../lib/gcc/nios2-elf/4.1.2\libgcc.a(_usi_to_df.o)
 .debug_aranges
                0x00000628       0x20 c:/altera/13.0sp1/nios2eds/bin/gnu/h-i686-mingw32/bin/../lib/gcc/nios2-elf/4.1.2\libgcc.a(lib2-divmod.o)
 .debug_aranges
                0x00000648       0x20 c:/altera/13.0sp1/nios2eds/bin/gnu/h-i686-mingw32/bin/../lib/gcc/nios2-elf/4.1.2\libgcc.a(_muldi3.o)
 .debug_aranges
                0x00000668       0x20 c:/altera/13.0sp1/nios2eds/bin/gnu/h-i686-mingw32/bin/../lib/gcc/nios2-elf/4.1.2\libgcc.a(_clzsi2.o)
 .debug_aranges
                0x00000688       0x20 c:/altera/13.0sp1/nios2eds/bin/gnu/h-i686-mingw32/bin/../lib/gcc/nios2-elf/4.1.2\libgcc.a(_pack_df.o)
 .debug_aranges
                0x000006a8       0x20 c:/altera/13.0sp1/nios2eds/bin/gnu/h-i686-mingw32/bin/../lib/gcc/nios2-elf/4.1.2\libgcc.a(_unpack_df.o)
 .debug_aranges
                0x000006c8       0x20 c:/altera/13.0sp1/nios2eds/bin/gnu/h-i686-mingw32/bin/../lib/gcc/nios2-elf/4.1.2\libgcc.a(_fpcmp_parts_df.o)
 .debug_aranges
                0x000006e8       0x20 ../Ascensor_bsp/\libucosii_bsp.a(alt_close.o)
 .debug_aranges
                0x00000708       0x20 ../Ascensor_bsp/\libucosii_bsp.a(alt_dev.o)
 .debug_aranges
                0x00000728       0x20 ../Ascensor_bsp/\libucosii_bsp.a(alt_fstat.o)
 .debug_aranges
                0x00000748       0x20 ../Ascensor_bsp/\libucosii_bsp.a(alt_irq_register.o)
 .debug_aranges
                0x00000768       0x20 ../Ascensor_bsp/\libucosii_bsp.a(alt_isatty.o)
 .debug_aranges
                0x00000788       0x20 ../Ascensor_bsp/\libucosii_bsp.a(alt_load.o)
 .debug_aranges
                0x000007a8       0x20 ../Ascensor_bsp/\libucosii_bsp.a(alt_lseek.o)
 .debug_aranges
                0x000007c8       0x20 ../Ascensor_bsp/\libucosii_bsp.a(alt_main.o)
 .debug_aranges
                0x000007e8       0x20 ../Ascensor_bsp/\libucosii_bsp.a(alt_read.o)
 .debug_aranges
                0x00000808       0x20 ../Ascensor_bsp/\libucosii_bsp.a(alt_release_fd.o)
 .debug_aranges
                0x00000828       0x20 ../Ascensor_bsp/\libucosii_bsp.a(alt_sbrk.o)
 .debug_aranges
                0x00000848       0x20 ../Ascensor_bsp/\libucosii_bsp.a(alt_write.o)
 .debug_aranges
                0x00000868       0x20 ../Ascensor_bsp/\libucosii_bsp.a(alt_env_lock.o)
 .debug_aranges
                0x00000888       0x20 ../Ascensor_bsp/\libucosii_bsp.a(alt_malloc_lock.o)
 .debug_aranges
                0x000008a8       0x20 ../Ascensor_bsp/\libucosii_bsp.a(os_core.o)
 .debug_aranges
                0x000008c8       0x20 ../Ascensor_bsp/\libucosii_bsp.a(os_dbg.o)
 .debug_aranges
                0x000008e8       0x20 ../Ascensor_bsp/\libucosii_bsp.a(os_flag.o)
 .debug_aranges
                0x00000908       0x20 ../Ascensor_bsp/\libucosii_bsp.a(os_mbox.o)
 .debug_aranges
                0x00000928       0x20 ../Ascensor_bsp/\libucosii_bsp.a(os_mem.o)
 .debug_aranges
                0x00000948       0x20 ../Ascensor_bsp/\libucosii_bsp.a(os_q.o)
 .debug_aranges
                0x00000968       0x20 ../Ascensor_bsp/\libucosii_bsp.a(os_sem.o)
 .debug_aranges
                0x00000988       0x20 ../Ascensor_bsp/\libucosii_bsp.a(os_task.o)
 .debug_aranges
                0x000009a8       0x20 ../Ascensor_bsp/\libucosii_bsp.a(os_time.o)
 .debug_aranges
                0x000009c8       0x20 ../Ascensor_bsp/\libucosii_bsp.a(alt_sys_init.o)
 .debug_aranges
                0x000009e8       0x20 ../Ascensor_bsp/\libucosii_bsp.a(altera_avalon_jtag_uart_fd.o)
 .debug_aranges
                0x00000a08       0x20 ../Ascensor_bsp/\libucosii_bsp.a(altera_avalon_jtag_uart_init.o)
 .debug_aranges
                0x00000a28       0x20 ../Ascensor_bsp/\libucosii_bsp.a(altera_avalon_jtag_uart_ioctl.o)
 .debug_aranges
                0x00000a48       0x20 ../Ascensor_bsp/\libucosii_bsp.a(altera_avalon_jtag_uart_read.o)
 .debug_aranges
                0x00000a68       0x20 ../Ascensor_bsp/\libucosii_bsp.a(altera_avalon_jtag_uart_write.o)
 .debug_aranges
                0x00000a88       0x20 ../Ascensor_bsp/\libucosii_bsp.a(altera_avalon_timer_sc.o)
 .debug_aranges
                0x00000aa8       0x20 ../Ascensor_bsp/\libucosii_bsp.a(altera_up_avalon_character_lcd.o)
 .debug_aranges
                0x00000ac8       0x20 ../Ascensor_bsp/\libucosii_bsp.a(alt_alarm_start.o)
 .debug_aranges
                0x00000ae8       0x20 ../Ascensor_bsp/\libucosii_bsp.a(alt_dcache_flush_all.o)
 .debug_aranges
                0x00000b08       0x20 ../Ascensor_bsp/\libucosii_bsp.a(alt_dev_llist_insert.o)
 .debug_aranges
                0x00000b28       0x20 ../Ascensor_bsp/\libucosii_bsp.a(alt_do_ctors.o)
 .debug_aranges
                0x00000b48       0x20 ../Ascensor_bsp/\libucosii_bsp.a(alt_do_dtors.o)
 .debug_aranges
                0x00000b68       0x20 ../Ascensor_bsp/\libucosii_bsp.a(alt_find_dev.o)
 .debug_aranges
                0x00000b88       0x20 ../Ascensor_bsp/\libucosii_bsp.a(alt_icache_flush_all.o)
 .debug_aranges
                0x00000ba8       0x20 ../Ascensor_bsp/\libucosii_bsp.a(alt_io_redirect.o)
 .debug_aranges
                0x00000bc8       0x30 ../Ascensor_bsp/\libucosii_bsp.a(alt_irq_entry.o)
 .debug_aranges
                0x00000bf8       0x28 ../Ascensor_bsp/\libucosii_bsp.a(alt_irq_handler.o)
 .debug_aranges
                0x00000c20       0x20 ../Ascensor_bsp/\libucosii_bsp.a(alt_open.o)
 .debug_aranges
                0x00000c40       0x20 ../Ascensor_bsp/\libucosii_bsp.a(alt_tick.o)
 .debug_aranges
                0x00000c60       0x20 ../Ascensor_bsp/\libucosii_bsp.a(altera_nios2_qsys_irq.o)
 .debug_aranges
                0x00000c80       0x20 ../Ascensor_bsp/\libucosii_bsp.a(os_cpu_a.o)
 .debug_aranges
                0x00000ca0       0x20 ../Ascensor_bsp/\libucosii_bsp.a(os_cpu_c.o)
 .debug_aranges
                0x00000cc0       0x38 ../Ascensor_bsp/\libucosii_bsp.a(alt_exception_entry.o)
 .debug_aranges
                0x00000cf8       0x20 ../Ascensor_bsp/\libucosii_bsp.a(alt_find_file.o)
 .debug_aranges
                0x00000d18       0x20 ../Ascensor_bsp/\libucosii_bsp.a(alt_get_fd.o)
 .debug_aranges
                0x00000d38       0x20 ../Ascensor_bsp/\libucosii_bsp.a(alt_icache_flush.o)
 .debug_aranges
                0x00000d58       0x20 c:/altera/13.0sp1/nios2eds/bin/gnu/h-i686-mingw32/bin/../lib/gcc/nios2-elf/4.1.2/../../../../nios2-elf/lib\libc.a(lib_a-atexit.o)
 .debug_aranges
                0x00000d78       0x20 c:/altera/13.0sp1/nios2eds/bin/gnu/h-i686-mingw32/bin/../lib/gcc/nios2-elf/4.1.2/../../../../nios2-elf/lib\libc.a(lib_a-exit.o)
 .debug_aranges
                0x00000d98       0x20 c:/altera/13.0sp1/nios2eds/bin/gnu/h-i686-mingw32/bin/../lib/gcc/nios2-elf/4.1.2/../../../../nios2-elf/lib\libc.a(lib_a-memcmp.o)
 .debug_aranges
                0x00000db8       0x20 c:/altera/13.0sp1/nios2eds/bin/gnu/h-i686-mingw32/bin/../lib/gcc/nios2-elf/4.1.2/../../../../nios2-elf/lib\libc.a(lib_a-__atexit.o)
 .debug_aranges
                0x00000dd8       0x20 c:/altera/13.0sp1/nios2eds/bin/gnu/h-i686-mingw32/bin/../lib/gcc/nios2-elf/4.1.2/../../../../nios2-elf/lib\libc.a(lib_a-__call_atexit.o)
 .debug_aranges
                0x00000df8       0x20 c:/altera/13.0sp1/nios2eds/bin/gnu/h-i686-mingw32/bin/../lib/gcc/nios2-elf/4.1.2\libgcc.a(_fixunsdfsi.o)
 .debug_aranges
                0x00000e18       0x20 ../Ascensor_bsp/\libucosii_bsp.a(alt_exit.o)

.debug_pubnames
                0x00000000     0x245a
 *(.debug_pubnames)
 .debug_pubnames
                0x00000000      0x253 obj/default/hello_ucosii.o
 .debug_pubnames
                0x00000253       0x2b c:/altera/13.0sp1/nios2eds/bin/gnu/h-i686-mingw32/bin/../lib/gcc/nios2-elf/4.1.2/../../../../nios2-elf/lib\libc.a(lib_a-printf.o)
 .debug_pubnames
                0x0000027e       0x27 c:/altera/13.0sp1/nios2eds/bin/gnu/h-i686-mingw32/bin/../lib/gcc/nios2-elf/4.1.2/../../../../nios2-elf/lib\libc.a(lib_a-puts.o)
 .debug_pubnames
                0x000002a5       0x2d c:/altera/13.0sp1/nios2eds/bin/gnu/h-i686-mingw32/bin/../lib/gcc/nios2-elf/4.1.2/../../../../nios2-elf/lib\libc.a(lib_a-sprintf.o)
 .debug_pubnames
                0x000002d2       0x1d c:/altera/13.0sp1/nios2eds/bin/gnu/h-i686-mingw32/bin/../lib/gcc/nios2-elf/4.1.2/../../../../nios2-elf/lib\libc.a(lib_a-strlen.o)
 .debug_pubnames
                0x000002ef       0x45 c:/altera/13.0sp1/nios2eds/bin/gnu/h-i686-mingw32/bin/../lib/gcc/nios2-elf/4.1.2/../../../../nios2-elf/lib\libc.a(lib_a-vfprintf.o)
 .debug_pubnames
                0x00000334       0x22 c:/altera/13.0sp1/nios2eds/bin/gnu/h-i686-mingw32/bin/../lib/gcc/nios2-elf/4.1.2/../../../../nios2-elf/lib\libc.a(lib_a-wsetup.o)
 .debug_pubnames
                0x00000356       0x1e c:/altera/13.0sp1/nios2eds/bin/gnu/h-i686-mingw32/bin/../lib/gcc/nios2-elf/4.1.2/../../../../nios2-elf/lib\libc.a(lib_a-dtoa.o)
 .debug_pubnames
                0x00000374       0x2b c:/altera/13.0sp1/nios2eds/bin/gnu/h-i686-mingw32/bin/../lib/gcc/nios2-elf/4.1.2/../../../../nios2-elf/lib\libc.a(lib_a-fflush.o)
 .debug_pubnames
                0x0000039f       0xdb c:/altera/13.0sp1/nios2eds/bin/gnu/h-i686-mingw32/bin/../lib/gcc/nios2-elf/4.1.2/../../../../nios2-elf/lib\libc.a(lib_a-findfp.o)
 .debug_pubnames
                0x0000047a       0x31 c:/altera/13.0sp1/nios2eds/bin/gnu/h-i686-mingw32/bin/../lib/gcc/nios2-elf/4.1.2/../../../../nios2-elf/lib\libc.a(lib_a-freer.o)
 .debug_pubnames
                0x000004ab       0x23 c:/altera/13.0sp1/nios2eds/bin/gnu/h-i686-mingw32/bin/../lib/gcc/nios2-elf/4.1.2/../../../../nios2-elf/lib\libc.a(lib_a-fvwrite.o)
 .debug_pubnames
                0x000004ce       0x2e c:/altera/13.0sp1/nios2eds/bin/gnu/h-i686-mingw32/bin/../lib/gcc/nios2-elf/4.1.2/../../../../nios2-elf/lib\libc.a(lib_a-fwalk.o)
 .debug_pubnames
                0x000004fc       0x39 c:/altera/13.0sp1/nios2eds/bin/gnu/h-i686-mingw32/bin/../lib/gcc/nios2-elf/4.1.2/../../../../nios2-elf/lib\libc.a(lib_a-impure.o)
 .debug_pubnames
                0x00000535       0xc3 c:/altera/13.0sp1/nios2eds/bin/gnu/h-i686-mingw32/bin/../lib/gcc/nios2-elf/4.1.2/../../../../nios2-elf/lib\libc.a(lib_a-locale.o)
 .debug_pubnames
                0x000005f8       0x23 c:/altera/13.0sp1/nios2eds/bin/gnu/h-i686-mingw32/bin/../lib/gcc/nios2-elf/4.1.2/../../../../nios2-elf/lib\libc.a(lib_a-makebuf.o)
 .debug_pubnames
                0x0000061b       0xce c:/altera/13.0sp1/nios2eds/bin/gnu/h-i686-mingw32/bin/../lib/gcc/nios2-elf/4.1.2/../../../../nios2-elf/lib\libc.a(lib_a-mallocr.o)
 .debug_pubnames
                0x000006e9       0x1d c:/altera/13.0sp1/nios2eds/bin/gnu/h-i686-mingw32/bin/../lib/gcc/nios2-elf/4.1.2/../../../../nios2-elf/lib\libc.a(lib_a-memchr.o)
 .debug_pubnames
                0x00000706       0x1d c:/altera/13.0sp1/nios2eds/bin/gnu/h-i686-mingw32/bin/../lib/gcc/nios2-elf/4.1.2/../../../../nios2-elf/lib\libc.a(lib_a-memcpy.o)
 .debug_pubnames
                0x00000723       0x1e c:/altera/13.0sp1/nios2eds/bin/gnu/h-i686-mingw32/bin/../lib/gcc/nios2-elf/4.1.2/../../../../nios2-elf/lib\libc.a(lib_a-memmove.o)
 .debug_pubnames
                0x00000741       0x1d c:/altera/13.0sp1/nios2eds/bin/gnu/h-i686-mingw32/bin/../lib/gcc/nios2-elf/4.1.2/../../../../nios2-elf/lib\libc.a(lib_a-memset.o)
 .debug_pubnames
                0x0000075e      0x13a c:/altera/13.0sp1/nios2eds/bin/gnu/h-i686-mingw32/bin/../lib/gcc/nios2-elf/4.1.2/../../../../nios2-elf/lib\libc.a(lib_a-mprec.o)
 .debug_pubnames
                0x00000898       0x21 c:/altera/13.0sp1/nios2eds/bin/gnu/h-i686-mingw32/bin/../lib/gcc/nios2-elf/4.1.2/../../../../nios2-elf/lib\libc.a(lib_a-reallocr.o)
 .debug_pubnames
                0x000008b9       0x1f c:/altera/13.0sp1/nios2eds/bin/gnu/h-i686-mingw32/bin/../lib/gcc/nios2-elf/4.1.2/../../../../nios2-elf/lib\libc.a(lib_a-s_isinfd.o)
 .debug_pubnames
                0x000008d8       0x1f c:/altera/13.0sp1/nios2eds/bin/gnu/h-i686-mingw32/bin/../lib/gcc/nios2-elf/4.1.2/../../../../nios2-elf/lib\libc.a(lib_a-s_isnand.o)
 .debug_pubnames
                0x000008f7       0x1e c:/altera/13.0sp1/nios2eds/bin/gnu/h-i686-mingw32/bin/../lib/gcc/nios2-elf/4.1.2/../../../../nios2-elf/lib\libc.a(lib_a-sbrkr.o)
 .debug_pubnames
                0x00000915       0x44 c:/altera/13.0sp1/nios2eds/bin/gnu/h-i686-mingw32/bin/../lib/gcc/nios2-elf/4.1.2/../../../../nios2-elf/lib\libc.a(lib_a-stdio.o)
 .debug_pubnames
                0x00000959       0x1d c:/altera/13.0sp1/nios2eds/bin/gnu/h-i686-mingw32/bin/../lib/gcc/nios2-elf/4.1.2/../../../../nios2-elf/lib\libc.a(lib_a-strcmp.o)
 .debug_pubnames
                0x00000976       0x1f c:/altera/13.0sp1/nios2eds/bin/gnu/h-i686-mingw32/bin/../lib/gcc/nios2-elf/4.1.2/../../../../nios2-elf/lib\libc.a(lib_a-writer.o)
 .debug_pubnames
                0x00000995       0x20 c:/altera/13.0sp1/nios2eds/bin/gnu/h-i686-mingw32/bin/../lib/gcc/nios2-elf/4.1.2/../../../../nios2-elf/lib\libc.a(lib_a-callocr.o)
 .debug_pubnames
                0x000009b5       0x1f c:/altera/13.0sp1/nios2eds/bin/gnu/h-i686-mingw32/bin/../lib/gcc/nios2-elf/4.1.2/../../../../nios2-elf/lib\libc.a(lib_a-closer.o)
 .debug_pubnames
                0x000009d4       0x2b c:/altera/13.0sp1/nios2eds/bin/gnu/h-i686-mingw32/bin/../lib/gcc/nios2-elf/4.1.2/../../../../nios2-elf/lib\libc.a(lib_a-fclose.o)
 .debug_pubnames
                0x000009ff       0x1f c:/altera/13.0sp1/nios2eds/bin/gnu/h-i686-mingw32/bin/../lib/gcc/nios2-elf/4.1.2/../../../../nios2-elf/lib\libc.a(lib_a-fstatr.o)
 .debug_pubnames
                0x00000a1e       0x1c c:/altera/13.0sp1/nios2eds/bin/gnu/h-i686-mingw32/bin/../lib/gcc/nios2-elf/4.1.2/../../../../nios2-elf/lib\libc.a(lib_a-int_errno.o)
 .debug_pubnames
                0x00000a3a       0x20 c:/altera/13.0sp1/nios2eds/bin/gnu/h-i686-mingw32/bin/../lib/gcc/nios2-elf/4.1.2/../../../../nios2-elf/lib\libc.a(lib_a-isattyr.o)
 .debug_pubnames
                0x00000a5a       0x1f c:/altera/13.0sp1/nios2eds/bin/gnu/h-i686-mingw32/bin/../lib/gcc/nios2-elf/4.1.2/../../../../nios2-elf/lib\libc.a(lib_a-lseekr.o)
 .debug_pubnames
                0x00000a79       0x1e c:/altera/13.0sp1/nios2eds/bin/gnu/h-i686-mingw32/bin/../lib/gcc/nios2-elf/4.1.2/../../../../nios2-elf/lib\libc.a(lib_a-readr.o)
 .debug_pubnames
                0x00000a97       0x20 c:/altera/13.0sp1/nios2eds/bin/gnu/h-i686-mingw32/bin/../lib/gcc/nios2-elf/4.1.2\libgcc.a(_udivdi3.o)
 .debug_pubnames
                0x00000ab7       0x20 c:/altera/13.0sp1/nios2eds/bin/gnu/h-i686-mingw32/bin/../lib/gcc/nios2-elf/4.1.2\libgcc.a(_umoddi3.o)
 .debug_pubnames
                0x00000ad7       0x2c c:/altera/13.0sp1/nios2eds/bin/gnu/h-i686-mingw32/bin/../lib/gcc/nios2-elf/4.1.2\libgcc.a(_addsub_df.o)
 .debug_pubnames
                0x00000b03       0x1f c:/altera/13.0sp1/nios2eds/bin/gnu/h-i686-mingw32/bin/../lib/gcc/nios2-elf/4.1.2\libgcc.a(_mul_df.o)
 .debug_pubnames
                0x00000b22       0x1f c:/altera/13.0sp1/nios2eds/bin/gnu/h-i686-mingw32/bin/../lib/gcc/nios2-elf/4.1.2\libgcc.a(_div_df.o)
 .debug_pubnames
                0x00000b41       0x1e c:/altera/13.0sp1/nios2eds/bin/gnu/h-i686-mingw32/bin/../lib/gcc/nios2-elf/4.1.2\libgcc.a(_eq_df.o)
 .debug_pubnames
                0x00000b5f       0x1e c:/altera/13.0sp1/nios2eds/bin/gnu/h-i686-mingw32/bin/../lib/gcc/nios2-elf/4.1.2\libgcc.a(_ne_df.o)
 .debug_pubnames
                0x00000b7d       0x1e c:/altera/13.0sp1/nios2eds/bin/gnu/h-i686-mingw32/bin/../lib/gcc/nios2-elf/4.1.2\libgcc.a(_gt_df.o)
 .debug_pubnames
                0x00000b9b       0x1e c:/altera/13.0sp1/nios2eds/bin/gnu/h-i686-mingw32/bin/../lib/gcc/nios2-elf/4.1.2\libgcc.a(_ge_df.o)
 .debug_pubnames
                0x00000bb9       0x1e c:/altera/13.0sp1/nios2eds/bin/gnu/h-i686-mingw32/bin/../lib/gcc/nios2-elf/4.1.2\libgcc.a(_lt_df.o)
 .debug_pubnames
                0x00000bd7       0x22 c:/altera/13.0sp1/nios2eds/bin/gnu/h-i686-mingw32/bin/../lib/gcc/nios2-elf/4.1.2\libgcc.a(_si_to_df.o)
 .debug_pubnames
                0x00000bf9       0x20 c:/altera/13.0sp1/nios2eds/bin/gnu/h-i686-mingw32/bin/../lib/gcc/nios2-elf/4.1.2\libgcc.a(_df_to_si.o)
 .debug_pubnames
                0x00000c19       0x22 c:/altera/13.0sp1/nios2eds/bin/gnu/h-i686-mingw32/bin/../lib/gcc/nios2-elf/4.1.2\libgcc.a(_thenan_df.o)
 .debug_pubnames
                0x00000c3b       0x24 c:/altera/13.0sp1/nios2eds/bin/gnu/h-i686-mingw32/bin/../lib/gcc/nios2-elf/4.1.2\libgcc.a(_usi_to_df.o)
 .debug_pubnames
                0x00000c5f       0x48 c:/altera/13.0sp1/nios2eds/bin/gnu/h-i686-mingw32/bin/../lib/gcc/nios2-elf/4.1.2\libgcc.a(lib2-divmod.o)
 .debug_pubnames
                0x00000ca7       0x1f c:/altera/13.0sp1/nios2eds/bin/gnu/h-i686-mingw32/bin/../lib/gcc/nios2-elf/4.1.2\libgcc.a(_muldi3.o)
 .debug_pubnames
                0x00000cc6       0x20 c:/altera/13.0sp1/nios2eds/bin/gnu/h-i686-mingw32/bin/../lib/gcc/nios2-elf/4.1.2\libgcc.a(_clz.o)
 .debug_pubnames
                0x00000ce6       0x1f c:/altera/13.0sp1/nios2eds/bin/gnu/h-i686-mingw32/bin/../lib/gcc/nios2-elf/4.1.2\libgcc.a(_clzsi2.o)
 .debug_pubnames
                0x00000d05       0x1f c:/altera/13.0sp1/nios2eds/bin/gnu/h-i686-mingw32/bin/../lib/gcc/nios2-elf/4.1.2\libgcc.a(_pack_df.o)
 .debug_pubnames
                0x00000d24       0x21 c:/altera/13.0sp1/nios2eds/bin/gnu/h-i686-mingw32/bin/../lib/gcc/nios2-elf/4.1.2\libgcc.a(_unpack_df.o)
 .debug_pubnames
                0x00000d45       0x26 c:/altera/13.0sp1/nios2eds/bin/gnu/h-i686-mingw32/bin/../lib/gcc/nios2-elf/4.1.2\libgcc.a(_fpcmp_parts_df.o)
 .debug_pubnames
                0x00000d6b       0x1c ../Ascensor_bsp/\libucosii_bsp.a(alt_close.o)
 .debug_pubnames
                0x00000d87       0x78 ../Ascensor_bsp/\libucosii_bsp.a(alt_dev.o)
 .debug_pubnames
                0x00000dff       0x20 ../Ascensor_bsp/\libucosii_bsp.a(alt_errno.o)
 .debug_pubnames
                0x00000e1f       0x1c ../Ascensor_bsp/\libucosii_bsp.a(alt_fstat.o)
 .debug_pubnames
                0x00000e3b       0x27 ../Ascensor_bsp/\libucosii_bsp.a(alt_irq_register.o)
 .debug_pubnames
                0x00000e62       0x3b ../Ascensor_bsp/\libucosii_bsp.a(alt_irq_vars.o)
 .debug_pubnames
                0x00000e9d       0x1d ../Ascensor_bsp/\libucosii_bsp.a(alt_isatty.o)
 .debug_pubnames
                0x00000eba       0x1f ../Ascensor_bsp/\libucosii_bsp.a(alt_load.o)
 .debug_pubnames
                0x00000ed9       0x1c ../Ascensor_bsp/\libucosii_bsp.a(alt_lseek.o)
 .debug_pubnames
                0x00000ef5       0x46 ../Ascensor_bsp/\libucosii_bsp.a(alt_main.o)
 .debug_pubnames
                0x00000f3b       0x1b ../Ascensor_bsp/\libucosii_bsp.a(alt_read.o)
 .debug_pubnames
                0x00000f56       0x25 ../Ascensor_bsp/\libucosii_bsp.a(alt_release_fd.o)
 .debug_pubnames
                0x00000f7b       0x1b ../Ascensor_bsp/\libucosii_bsp.a(alt_sbrk.o)
 .debug_pubnames
                0x00000f96       0x1c ../Ascensor_bsp/\libucosii_bsp.a(alt_write.o)
 .debug_pubnames
                0x00000fb2       0x41 ../Ascensor_bsp/\libucosii_bsp.a(alt_env_lock.o)
 .debug_pubnames
                0x00000ff3       0x48 ../Ascensor_bsp/\libucosii_bsp.a(alt_malloc_lock.o)
 .debug_pubnames
                0x0000103b      0x3f8 ../Ascensor_bsp/\libucosii_bsp.a(os_core.o)
 .debug_pubnames
                0x00001433      0x3c5 ../Ascensor_bsp/\libucosii_bsp.a(os_dbg.o)
 .debug_pubnames
                0x000017f8       0xd0 ../Ascensor_bsp/\libucosii_bsp.a(os_flag.o)
 .debug_pubnames
                0x000018c8       0x96 ../Ascensor_bsp/\libucosii_bsp.a(os_mbox.o)
 .debug_pubnames
                0x0000195e       0x7c ../Ascensor_bsp/\libucosii_bsp.a(os_mem.o)
 .debug_pubnames
                0x000019da       0xa9 ../Ascensor_bsp/\libucosii_bsp.a(os_q.o)
 .debug_pubnames
                0x00001a83       0x8a ../Ascensor_bsp/\libucosii_bsp.a(os_sem.o)
 .debug_pubnames
                0x00001b0d       0xe5 ../Ascensor_bsp/\libucosii_bsp.a(os_task.o)
 .debug_pubnames
                0x00001bf2       0x62 ../Ascensor_bsp/\libucosii_bsp.a(os_time.o)
 .debug_pubnames
                0x00001c54       0x34 ../Ascensor_bsp/\libucosii_bsp.a(alt_sys_init.o)
 .debug_pubnames
                0x00001c88       0xa5 ../Ascensor_bsp/\libucosii_bsp.a(altera_avalon_jtag_uart_fd.o)
 .debug_pubnames
                0x00001d2d       0x55 ../Ascensor_bsp/\libucosii_bsp.a(altera_avalon_jtag_uart_init.o)
 .debug_pubnames
                0x00001d82       0x34 ../Ascensor_bsp/\libucosii_bsp.a(altera_avalon_jtag_uart_ioctl.o)
 .debug_pubnames
                0x00001db6       0x33 ../Ascensor_bsp/\libucosii_bsp.a(altera_avalon_jtag_uart_read.o)
 .debug_pubnames
                0x00001de9       0x34 ../Ascensor_bsp/\libucosii_bsp.a(altera_avalon_jtag_uart_write.o)
 .debug_pubnames
                0x00001e1d       0x2f ../Ascensor_bsp/\libucosii_bsp.a(altera_avalon_timer_sc.o)
 .debug_pubnames
                0x00001e4c      0x1cd ../Ascensor_bsp/\libucosii_bsp.a(altera_up_avalon_character_lcd.o)
 .debug_pubnames
                0x00002019       0x26 ../Ascensor_bsp/\libucosii_bsp.a(alt_alarm_start.o)
 .debug_pubnames
                0x0000203f       0x2b ../Ascensor_bsp/\libucosii_bsp.a(alt_dcache_flush_all.o)
 .debug_pubnames
                0x0000206a       0x2b ../Ascensor_bsp/\libucosii_bsp.a(alt_dev_llist_insert.o)
 .debug_pubnames
                0x00002095       0x20 ../Ascensor_bsp/\libucosii_bsp.a(alt_do_ctors.o)
 .debug_pubnames
                0x000020b5       0x20 ../Ascensor_bsp/\libucosii_bsp.a(alt_do_dtors.o)
 .debug_pubnames
                0x000020d5       0x23 ../Ascensor_bsp/\libucosii_bsp.a(alt_find_dev.o)
 .debug_pubnames
                0x000020f8       0x2b ../Ascensor_bsp/\libucosii_bsp.a(alt_icache_flush_all.o)
 .debug_pubnames
                0x00002123       0x26 ../Ascensor_bsp/\libucosii_bsp.a(alt_io_redirect.o)
 .debug_pubnames
                0x00002149       0x32 ../Ascensor_bsp/\libucosii_bsp.a(alt_irq_handler.o)
 .debug_pubnames
                0x0000217b       0x1b ../Ascensor_bsp/\libucosii_bsp.a(alt_open.o)
 .debug_pubnames
                0x00002196       0x68 ../Ascensor_bsp/\libucosii_bsp.a(alt_tick.o)
 .debug_pubnames
                0x000021fe       0x31 ../Ascensor_bsp/\libucosii_bsp.a(altera_nios2_qsys_irq.o)
 .debug_pubnames
                0x0000222f       0xcd ../Ascensor_bsp/\libucosii_bsp.a(os_cpu_c.o)
 .debug_pubnames
                0x000022fc       0x24 ../Ascensor_bsp/\libucosii_bsp.a(alt_find_file.o)
 .debug_pubnames
                0x00002320       0x21 ../Ascensor_bsp/\libucosii_bsp.a(alt_get_fd.o)
 .debug_pubnames
                0x00002341       0x27 ../Ascensor_bsp/\libucosii_bsp.a(alt_icache_flush.o)
 .debug_pubnames
                0x00002368       0x2a c:/altera/13.0sp1/nios2eds/bin/gnu/h-i686-mingw32/bin/../lib/gcc/nios2-elf/4.1.2/../../../../nios2-elf/lib\libc.a(lib_a-atexit.o)
 .debug_pubnames
                0x00002392       0x1b c:/altera/13.0sp1/nios2eds/bin/gnu/h-i686-mingw32/bin/../lib/gcc/nios2-elf/4.1.2/../../../../nios2-elf/lib\libc.a(lib_a-exit.o)
 .debug_pubnames
                0x000023ad       0x1d c:/altera/13.0sp1/nios2eds/bin/gnu/h-i686-mingw32/bin/../lib/gcc/nios2-elf/4.1.2/../../../../nios2-elf/lib\libc.a(lib_a-memcmp.o)
 .debug_pubnames
                0x000023ca       0x2a c:/altera/13.0sp1/nios2eds/bin/gnu/h-i686-mingw32/bin/../lib/gcc/nios2-elf/4.1.2/../../../../nios2-elf/lib\libc.a(lib_a-__atexit.o)
 .debug_pubnames
                0x000023f4       0x27 c:/altera/13.0sp1/nios2eds/bin/gnu/h-i686-mingw32/bin/../lib/gcc/nios2-elf/4.1.2/../../../../nios2-elf/lib\libc.a(lib_a-__call_atexit.o)
 .debug_pubnames
                0x0000241b       0x23 c:/altera/13.0sp1/nios2eds/bin/gnu/h-i686-mingw32/bin/../lib/gcc/nios2-elf/4.1.2\libgcc.a(_fixunsdfsi.o)
 .debug_pubnames
                0x0000243e       0x1c ../Ascensor_bsp/\libucosii_bsp.a(alt_exit.o)

.debug_info     0x00000000    0x319cb
 *(.debug_info .gnu.linkonce.wi.*)
 .debug_info    0x00000000       0x56 ../Ascensor_bsp//obj/HAL/src/crt0.o
 .debug_info    0x00000056      0x9ed obj/default/hello_ucosii.o
 .debug_info    0x00000a43      0x9d1 c:/altera/13.0sp1/nios2eds/bin/gnu/h-i686-mingw32/bin/../lib/gcc/nios2-elf/4.1.2/../../../../nios2-elf/lib\libc.a(lib_a-printf.o)
 .debug_info    0x00001414      0xa25 c:/altera/13.0sp1/nios2eds/bin/gnu/h-i686-mingw32/bin/../lib/gcc/nios2-elf/4.1.2/../../../../nios2-elf/lib\libc.a(lib_a-puts.o)
 .debug_info    0x00001e39      0xa16 c:/altera/13.0sp1/nios2eds/bin/gnu/h-i686-mingw32/bin/../lib/gcc/nios2-elf/4.1.2/../../../../nios2-elf/lib\libc.a(lib_a-sprintf.o)
 .debug_info    0x0000284f       0xdb c:/altera/13.0sp1/nios2eds/bin/gnu/h-i686-mingw32/bin/../lib/gcc/nios2-elf/4.1.2/../../../../nios2-elf/lib\libc.a(lib_a-strlen.o)
 .debug_info    0x0000292a     0x10d5 c:/altera/13.0sp1/nios2eds/bin/gnu/h-i686-mingw32/bin/../lib/gcc/nios2-elf/4.1.2/../../../../nios2-elf/lib\libc.a(lib_a-vfprintf.o)
 .debug_info    0x000039ff      0x95d c:/altera/13.0sp1/nios2eds/bin/gnu/h-i686-mingw32/bin/../lib/gcc/nios2-elf/4.1.2/../../../../nios2-elf/lib\libc.a(lib_a-wsetup.o)
 .debug_info    0x0000435c      0xd6f c:/altera/13.0sp1/nios2eds/bin/gnu/h-i686-mingw32/bin/../lib/gcc/nios2-elf/4.1.2/../../../../nios2-elf/lib\libc.a(lib_a-dtoa.o)
 .debug_info    0x000050cb      0x9fe c:/altera/13.0sp1/nios2eds/bin/gnu/h-i686-mingw32/bin/../lib/gcc/nios2-elf/4.1.2/../../../../nios2-elf/lib\libc.a(lib_a-fflush.o)
 .debug_info    0x00005ac9      0xb72 c:/altera/13.0sp1/nios2eds/bin/gnu/h-i686-mingw32/bin/../lib/gcc/nios2-elf/4.1.2/../../../../nios2-elf/lib\libc.a(lib_a-findfp.o)
 .debug_info    0x0000663b      0xbc9 c:/altera/13.0sp1/nios2eds/bin/gnu/h-i686-mingw32/bin/../lib/gcc/nios2-elf/4.1.2/../../../../nios2-elf/lib\libc.a(lib_a-freer.o)
 .debug_info    0x00007204      0xa88 c:/altera/13.0sp1/nios2eds/bin/gnu/h-i686-mingw32/bin/../lib/gcc/nios2-elf/4.1.2/../../../../nios2-elf/lib\libc.a(lib_a-fvwrite.o)
 .debug_info    0x00007c8c      0xaed c:/altera/13.0sp1/nios2eds/bin/gnu/h-i686-mingw32/bin/../lib/gcc/nios2-elf/4.1.2/../../../../nios2-elf/lib\libc.a(lib_a-fwalk.o)
 .debug_info    0x00008779      0x93d c:/altera/13.0sp1/nios2eds/bin/gnu/h-i686-mingw32/bin/../lib/gcc/nios2-elf/4.1.2/../../../../nios2-elf/lib\libc.a(lib_a-impure.o)
 .debug_info    0x000090b6      0xb97 c:/altera/13.0sp1/nios2eds/bin/gnu/h-i686-mingw32/bin/../lib/gcc/nios2-elf/4.1.2/../../../../nios2-elf/lib\libc.a(lib_a-locale.o)
 .debug_info    0x00009c4d      0xb1a c:/altera/13.0sp1/nios2eds/bin/gnu/h-i686-mingw32/bin/../lib/gcc/nios2-elf/4.1.2/../../../../nios2-elf/lib\libc.a(lib_a-makebuf.o)
 .debug_info    0x0000a767      0xcd0 c:/altera/13.0sp1/nios2eds/bin/gnu/h-i686-mingw32/bin/../lib/gcc/nios2-elf/4.1.2/../../../../nios2-elf/lib\libc.a(lib_a-mallocr.o)
 .debug_info    0x0000b437      0x138 c:/altera/13.0sp1/nios2eds/bin/gnu/h-i686-mingw32/bin/../lib/gcc/nios2-elf/4.1.2/../../../../nios2-elf/lib\libc.a(lib_a-memchr.o)
 .debug_info    0x0000b56f      0x106 c:/altera/13.0sp1/nios2eds/bin/gnu/h-i686-mingw32/bin/../lib/gcc/nios2-elf/4.1.2/../../../../nios2-elf/lib\libc.a(lib_a-memcpy.o)
 .debug_info    0x0000b675      0x13e c:/altera/13.0sp1/nios2eds/bin/gnu/h-i686-mingw32/bin/../lib/gcc/nios2-elf/4.1.2/../../../../nios2-elf/lib\libc.a(lib_a-memmove.o)
 .debug_info    0x0000b7b3      0x113 c:/altera/13.0sp1/nios2eds/bin/gnu/h-i686-mingw32/bin/../lib/gcc/nios2-elf/4.1.2/../../../../nios2-elf/lib\libc.a(lib_a-memset.o)
 .debug_info    0x0000b8c6     0x1437 c:/altera/13.0sp1/nios2eds/bin/gnu/h-i686-mingw32/bin/../lib/gcc/nios2-elf/4.1.2/../../../../nios2-elf/lib\libc.a(lib_a-mprec.o)
 .debug_info    0x0000ccfd      0xbd7 c:/altera/13.0sp1/nios2eds/bin/gnu/h-i686-mingw32/bin/../lib/gcc/nios2-elf/4.1.2/../../../../nios2-elf/lib\libc.a(lib_a-reallocr.o)
 .debug_info    0x0000d8d4       0xd7 c:/altera/13.0sp1/nios2eds/bin/gnu/h-i686-mingw32/bin/../lib/gcc/nios2-elf/4.1.2/../../../../nios2-elf/lib\libc.a(lib_a-s_isinfd.o)
 .debug_info    0x0000d9ab       0xd5 c:/altera/13.0sp1/nios2eds/bin/gnu/h-i686-mingw32/bin/../lib/gcc/nios2-elf/4.1.2/../../../../nios2-elf/lib\libc.a(lib_a-s_isnand.o)
 .debug_info    0x0000da80      0x962 c:/altera/13.0sp1/nios2eds/bin/gnu/h-i686-mingw32/bin/../lib/gcc/nios2-elf/4.1.2/../../../../nios2-elf/lib\libc.a(lib_a-sbrkr.o)
 .debug_info    0x0000e3e2      0xaac c:/altera/13.0sp1/nios2eds/bin/gnu/h-i686-mingw32/bin/../lib/gcc/nios2-elf/4.1.2/../../../../nios2-elf/lib\libc.a(lib_a-stdio.o)
 .debug_info    0x0000ee8e       0xdd c:/altera/13.0sp1/nios2eds/bin/gnu/h-i686-mingw32/bin/../lib/gcc/nios2-elf/4.1.2/../../../../nios2-elf/lib\libc.a(lib_a-strcmp.o)
 .debug_info    0x0000ef6b      0x993 c:/altera/13.0sp1/nios2eds/bin/gnu/h-i686-mingw32/bin/../lib/gcc/nios2-elf/4.1.2/../../../../nios2-elf/lib\libc.a(lib_a-writer.o)
 .debug_info    0x0000f8fe      0xa1b c:/altera/13.0sp1/nios2eds/bin/gnu/h-i686-mingw32/bin/../lib/gcc/nios2-elf/4.1.2/../../../../nios2-elf/lib\libc.a(lib_a-callocr.o)
 .debug_info    0x00010319      0x958 c:/altera/13.0sp1/nios2eds/bin/gnu/h-i686-mingw32/bin/../lib/gcc/nios2-elf/4.1.2/../../../../nios2-elf/lib\libc.a(lib_a-closer.o)
 .debug_info    0x00010c71      0x994 c:/altera/13.0sp1/nios2eds/bin/gnu/h-i686-mingw32/bin/../lib/gcc/nios2-elf/4.1.2/../../../../nios2-elf/lib\libc.a(lib_a-fclose.o)
 .debug_info    0x00011605      0xafc c:/altera/13.0sp1/nios2eds/bin/gnu/h-i686-mingw32/bin/../lib/gcc/nios2-elf/4.1.2/../../../../nios2-elf/lib\libc.a(lib_a-fstatr.o)
 .debug_info    0x00012101       0x8c c:/altera/13.0sp1/nios2eds/bin/gnu/h-i686-mingw32/bin/../lib/gcc/nios2-elf/4.1.2/../../../../nios2-elf/lib\libc.a(lib_a-int_errno.o)
 .debug_info    0x0001218d      0x958 c:/altera/13.0sp1/nios2eds/bin/gnu/h-i686-mingw32/bin/../lib/gcc/nios2-elf/4.1.2/../../../../nios2-elf/lib\libc.a(lib_a-isattyr.o)
 .debug_info    0x00012ae5      0x981 c:/altera/13.0sp1/nios2eds/bin/gnu/h-i686-mingw32/bin/../lib/gcc/nios2-elf/4.1.2/../../../../nios2-elf/lib\libc.a(lib_a-lseekr.o)
 .debug_info    0x00013466      0x98c c:/altera/13.0sp1/nios2eds/bin/gnu/h-i686-mingw32/bin/../lib/gcc/nios2-elf/4.1.2/../../../../nios2-elf/lib\libc.a(lib_a-readr.o)
 .debug_info    0x00013df2      0x724 c:/altera/13.0sp1/nios2eds/bin/gnu/h-i686-mingw32/bin/../lib/gcc/nios2-elf/4.1.2\libgcc.a(_udivdi3.o)
 .debug_info    0x00014516      0x751 c:/altera/13.0sp1/nios2eds/bin/gnu/h-i686-mingw32/bin/../lib/gcc/nios2-elf/4.1.2\libgcc.a(_umoddi3.o)
 .debug_info    0x00014c67      0x493 c:/altera/13.0sp1/nios2eds/bin/gnu/h-i686-mingw32/bin/../lib/gcc/nios2-elf/4.1.2\libgcc.a(_addsub_df.o)
 .debug_info    0x000150fa      0x488 c:/altera/13.0sp1/nios2eds/bin/gnu/h-i686-mingw32/bin/../lib/gcc/nios2-elf/4.1.2\libgcc.a(_mul_df.o)
 .debug_info    0x00015582      0x39b c:/altera/13.0sp1/nios2eds/bin/gnu/h-i686-mingw32/bin/../lib/gcc/nios2-elf/4.1.2\libgcc.a(_div_df.o)
 .debug_info    0x0001591d      0x29d c:/altera/13.0sp1/nios2eds/bin/gnu/h-i686-mingw32/bin/../lib/gcc/nios2-elf/4.1.2\libgcc.a(_eq_df.o)
 .debug_info    0x00015bba      0x29d c:/altera/13.0sp1/nios2eds/bin/gnu/h-i686-mingw32/bin/../lib/gcc/nios2-elf/4.1.2\libgcc.a(_ne_df.o)
 .debug_info    0x00015e57      0x29d c:/altera/13.0sp1/nios2eds/bin/gnu/h-i686-mingw32/bin/../lib/gcc/nios2-elf/4.1.2\libgcc.a(_gt_df.o)
 .debug_info    0x000160f4      0x29d c:/altera/13.0sp1/nios2eds/bin/gnu/h-i686-mingw32/bin/../lib/gcc/nios2-elf/4.1.2\libgcc.a(_ge_df.o)
 .debug_info    0x00016391      0x29d c:/altera/13.0sp1/nios2eds/bin/gnu/h-i686-mingw32/bin/../lib/gcc/nios2-elf/4.1.2\libgcc.a(_lt_df.o)
 .debug_info    0x0001662e      0x218 c:/altera/13.0sp1/nios2eds/bin/gnu/h-i686-mingw32/bin/../lib/gcc/nios2-elf/4.1.2\libgcc.a(_si_to_df.o)
 .debug_info    0x00016846      0x2cd c:/altera/13.0sp1/nios2eds/bin/gnu/h-i686-mingw32/bin/../lib/gcc/nios2-elf/4.1.2\libgcc.a(_df_to_si.o)
 .debug_info    0x00016b13      0x164 c:/altera/13.0sp1/nios2eds/bin/gnu/h-i686-mingw32/bin/../lib/gcc/nios2-elf/4.1.2\libgcc.a(_thenan_df.o)
 .debug_info    0x00016c77      0x213 c:/altera/13.0sp1/nios2eds/bin/gnu/h-i686-mingw32/bin/../lib/gcc/nios2-elf/4.1.2\libgcc.a(_usi_to_df.o)
 .debug_info    0x00016e8a      0x21c c:/altera/13.0sp1/nios2eds/bin/gnu/h-i686-mingw32/bin/../lib/gcc/nios2-elf/4.1.2\libgcc.a(lib2-divmod.o)
 .debug_info    0x000170a6      0x215 c:/altera/13.0sp1/nios2eds/bin/gnu/h-i686-mingw32/bin/../lib/gcc/nios2-elf/4.1.2\libgcc.a(_muldi3.o)
 .debug_info    0x000172bb       0xc9 c:/altera/13.0sp1/nios2eds/bin/gnu/h-i686-mingw32/bin/../lib/gcc/nios2-elf/4.1.2\libgcc.a(_clz.o)
 .debug_info    0x00017384      0x130 c:/altera/13.0sp1/nios2eds/bin/gnu/h-i686-mingw32/bin/../lib/gcc/nios2-elf/4.1.2\libgcc.a(_clzsi2.o)
 .debug_info    0x000174b4      0x2fc c:/altera/13.0sp1/nios2eds/bin/gnu/h-i686-mingw32/bin/../lib/gcc/nios2-elf/4.1.2\libgcc.a(_pack_df.o)
 .debug_info    0x000177b0      0x268 c:/altera/13.0sp1/nios2eds/bin/gnu/h-i686-mingw32/bin/../lib/gcc/nios2-elf/4.1.2\libgcc.a(_unpack_df.o)
 .debug_info    0x00017a18      0x21b c:/altera/13.0sp1/nios2eds/bin/gnu/h-i686-mingw32/bin/../lib/gcc/nios2-elf/4.1.2\libgcc.a(_fpcmp_parts_df.o)
 .debug_info    0x00017c33      0x4c9 ../Ascensor_bsp/\libucosii_bsp.a(alt_close.o)
 .debug_info    0x000180fc      0x7eb ../Ascensor_bsp/\libucosii_bsp.a(alt_dev.o)
 .debug_info    0x000188e7      0x13f ../Ascensor_bsp/\libucosii_bsp.a(alt_errno.o)
 .debug_info    0x00018a26      0x6c2 ../Ascensor_bsp/\libucosii_bsp.a(alt_fstat.o)
 .debug_info    0x000190e8      0x44a ../Ascensor_bsp/\libucosii_bsp.a(alt_irq_register.o)
 .debug_info    0x00019532      0x142 ../Ascensor_bsp/\libucosii_bsp.a(alt_irq_vars.o)
 .debug_info    0x00019674      0x6c8 ../Ascensor_bsp/\libucosii_bsp.a(alt_isatty.o)
 .debug_info    0x00019d3c      0x268 ../Ascensor_bsp/\libucosii_bsp.a(alt_load.o)
 .debug_info    0x00019fa4      0x4fc ../Ascensor_bsp/\libucosii_bsp.a(alt_lseek.o)
 .debug_info    0x0001a4a0      0x3eb ../Ascensor_bsp/\libucosii_bsp.a(alt_main.o)
 .debug_info    0x0001a88b      0x6ec ../Ascensor_bsp/\libucosii_bsp.a(alt_read.o)
 .debug_info    0x0001af77      0x45d ../Ascensor_bsp/\libucosii_bsp.a(alt_release_fd.o)
 .debug_info    0x0001b3d4      0x2d9 ../Ascensor_bsp/\libucosii_bsp.a(alt_sbrk.o)
 .debug_info    0x0001b6ad      0x6f5 ../Ascensor_bsp/\libucosii_bsp.a(alt_write.o)
 .debug_info    0x0001bda2     0x11e1 ../Ascensor_bsp/\libucosii_bsp.a(alt_env_lock.o)
 .debug_info    0x0001cf83     0x133d ../Ascensor_bsp/\libucosii_bsp.a(alt_malloc_lock.o)
 .debug_info    0x0001e2c0     0x1bf7 ../Ascensor_bsp/\libucosii_bsp.a(os_core.o)
 .debug_info    0x0001feb7     0x113c ../Ascensor_bsp/\libucosii_bsp.a(os_dbg.o)
 .debug_info    0x00020ff3     0x1252 ../Ascensor_bsp/\libucosii_bsp.a(os_flag.o)
 .debug_info    0x00022245      0xd4e ../Ascensor_bsp/\libucosii_bsp.a(os_mbox.o)
 .debug_info    0x00022f93      0x81c ../Ascensor_bsp/\libucosii_bsp.a(os_mem.o)
 .debug_info    0x000237af     0x108c ../Ascensor_bsp/\libucosii_bsp.a(os_q.o)
 .debug_info    0x0002483b      0xcf4 ../Ascensor_bsp/\libucosii_bsp.a(os_sem.o)
 .debug_info    0x0002552f     0x136a ../Ascensor_bsp/\libucosii_bsp.a(os_task.o)
 .debug_info    0x00026899      0x9ee ../Ascensor_bsp/\libucosii_bsp.a(os_time.o)
 .debug_info    0x00027287      0xa32 ../Ascensor_bsp/\libucosii_bsp.a(alt_sys_init.o)
 .debug_info    0x00027cb9      0x9e0 ../Ascensor_bsp/\libucosii_bsp.a(altera_avalon_jtag_uart_fd.o)
 .debug_info    0x00028699      0x96b ../Ascensor_bsp/\libucosii_bsp.a(altera_avalon_jtag_uart_init.o)
 .debug_info    0x00029004      0x64a ../Ascensor_bsp/\libucosii_bsp.a(altera_avalon_jtag_uart_ioctl.o)
 .debug_info    0x0002964e      0x806 ../Ascensor_bsp/\libucosii_bsp.a(altera_avalon_jtag_uart_read.o)
 .debug_info    0x00029e54      0x7fd ../Ascensor_bsp/\libucosii_bsp.a(altera_avalon_jtag_uart_write.o)
 .debug_info    0x0002a651      0x3a6 ../Ascensor_bsp/\libucosii_bsp.a(altera_avalon_timer_sc.o)
 .debug_info    0x0002a9f7      0x90a ../Ascensor_bsp/\libucosii_bsp.a(altera_up_avalon_character_lcd.o)
 .debug_info    0x0002b301      0x450 ../Ascensor_bsp/\libucosii_bsp.a(alt_alarm_start.o)
 .debug_info    0x0002b751      0x137 ../Ascensor_bsp/\libucosii_bsp.a(alt_dcache_flush_all.o)
 .debug_info    0x0002b888      0x292 ../Ascensor_bsp/\libucosii_bsp.a(alt_dev_llist_insert.o)
 .debug_info    0x0002bb1a       0xea ../Ascensor_bsp/\libucosii_bsp.a(alt_do_ctors.o)
 .debug_info    0x0002bc04       0xe9 ../Ascensor_bsp/\libucosii_bsp.a(alt_do_dtors.o)
 .debug_info    0x0002bced      0x47a ../Ascensor_bsp/\libucosii_bsp.a(alt_find_dev.o)
 .debug_info    0x0002c167      0x137 ../Ascensor_bsp/\libucosii_bsp.a(alt_icache_flush_all.o)
 .debug_info    0x0002c29e      0x6f7 ../Ascensor_bsp/\libucosii_bsp.a(alt_io_redirect.o)
 .debug_info    0x0002c995       0x5f ../Ascensor_bsp/\libucosii_bsp.a(alt_irq_entry.o)
 .debug_info    0x0002c9f4      0x2cd ../Ascensor_bsp/\libucosii_bsp.a(alt_irq_handler.o)
 .debug_info    0x0002ccc1      0x578 ../Ascensor_bsp/\libucosii_bsp.a(alt_open.o)
 .debug_info    0x0002d239      0x41f ../Ascensor_bsp/\libucosii_bsp.a(alt_tick.o)
 .debug_info    0x0002d658      0x185 ../Ascensor_bsp/\libucosii_bsp.a(altera_nios2_qsys_irq.o)
 .debug_info    0x0002d7dd       0x5e ../Ascensor_bsp/\libucosii_bsp.a(os_cpu_a.o)
 .debug_info    0x0002d83b     0x12e1 ../Ascensor_bsp/\libucosii_bsp.a(os_cpu_c.o)
 .debug_info    0x0002eb1c       0x65 ../Ascensor_bsp/\libucosii_bsp.a(alt_exception_entry.o)
 .debug_info    0x0002eb81      0x481 ../Ascensor_bsp/\libucosii_bsp.a(alt_find_file.o)
 .debug_info    0x0002f002      0x613 ../Ascensor_bsp/\libucosii_bsp.a(alt_get_fd.o)
 .debug_info    0x0002f615      0x17f ../Ascensor_bsp/\libucosii_bsp.a(alt_icache_flush.o)
 .debug_info    0x0002f794      0x181 c:/altera/13.0sp1/nios2eds/bin/gnu/h-i686-mingw32/bin/../lib/gcc/nios2-elf/4.1.2/../../../../nios2-elf/lib\libc.a(lib_a-atexit.o)
 .debug_info    0x0002f915      0x93f c:/altera/13.0sp1/nios2eds/bin/gnu/h-i686-mingw32/bin/../lib/gcc/nios2-elf/4.1.2/../../../../nios2-elf/lib\libc.a(lib_a-exit.o)
 .debug_info    0x00030254      0x115 c:/altera/13.0sp1/nios2eds/bin/gnu/h-i686-mingw32/bin/../lib/gcc/nios2-elf/4.1.2/../../../../nios2-elf/lib\libc.a(lib_a-memcmp.o)
 .debug_info    0x00030369      0x99c c:/altera/13.0sp1/nios2eds/bin/gnu/h-i686-mingw32/bin/../lib/gcc/nios2-elf/4.1.2/../../../../nios2-elf/lib\libc.a(lib_a-__atexit.o)
 .debug_info    0x00030d05      0x9e2 c:/altera/13.0sp1/nios2eds/bin/gnu/h-i686-mingw32/bin/../lib/gcc/nios2-elf/4.1.2/../../../../nios2-elf/lib\libc.a(lib_a-__call_atexit.o)
 .debug_info    0x000316e7       0xce c:/altera/13.0sp1/nios2eds/bin/gnu/h-i686-mingw32/bin/../lib/gcc/nios2-elf/4.1.2\libgcc.a(_fixunsdfsi.o)
 .debug_info    0x000317b5      0x216 ../Ascensor_bsp/\libucosii_bsp.a(alt_exit.o)

.debug_abbrev   0x00000000     0x9696
 *(.debug_abbrev)
 .debug_abbrev  0x00000000       0x12 ../Ascensor_bsp//obj/HAL/src/crt0.o
 .debug_abbrev  0x00000012      0x182 obj/default/hello_ucosii.o
 .debug_abbrev  0x00000194      0x191 c:/altera/13.0sp1/nios2eds/bin/gnu/h-i686-mingw32/bin/../lib/gcc/nios2-elf/4.1.2/../../../../nios2-elf/lib\libc.a(lib_a-printf.o)
 .debug_abbrev  0x00000325      0x1ac c:/altera/13.0sp1/nios2eds/bin/gnu/h-i686-mingw32/bin/../lib/gcc/nios2-elf/4.1.2/../../../../nios2-elf/lib\libc.a(lib_a-puts.o)
 .debug_abbrev  0x000004d1      0x191 c:/altera/13.0sp1/nios2eds/bin/gnu/h-i686-mingw32/bin/../lib/gcc/nios2-elf/4.1.2/../../../../nios2-elf/lib\libc.a(lib_a-sprintf.o)
 .debug_abbrev  0x00000662       0x8b c:/altera/13.0sp1/nios2eds/bin/gnu/h-i686-mingw32/bin/../lib/gcc/nios2-elf/4.1.2/../../../../nios2-elf/lib\libc.a(lib_a-strlen.o)
 .debug_abbrev  0x000006ed      0x30a c:/altera/13.0sp1/nios2eds/bin/gnu/h-i686-mingw32/bin/../lib/gcc/nios2-elf/4.1.2/../../../../nios2-elf/lib\libc.a(lib_a-vfprintf.o)
 .debug_abbrev  0x000009f7      0x170 c:/altera/13.0sp1/nios2eds/bin/gnu/h-i686-mingw32/bin/../lib/gcc/nios2-elf/4.1.2/../../../../nios2-elf/lib\libc.a(lib_a-wsetup.o)
 .debug_abbrev  0x00000b67      0x232 c:/altera/13.0sp1/nios2eds/bin/gnu/h-i686-mingw32/bin/../lib/gcc/nios2-elf/4.1.2/../../../../nios2-elf/lib\libc.a(lib_a-dtoa.o)
 .debug_abbrev  0x00000d99      0x1c6 c:/altera/13.0sp1/nios2eds/bin/gnu/h-i686-mingw32/bin/../lib/gcc/nios2-elf/4.1.2/../../../../nios2-elf/lib\libc.a(lib_a-fflush.o)
 .debug_abbrev  0x00000f5f      0x24c c:/altera/13.0sp1/nios2eds/bin/gnu/h-i686-mingw32/bin/../lib/gcc/nios2-elf/4.1.2/../../../../nios2-elf/lib\libc.a(lib_a-findfp.o)
 .debug_abbrev  0x000011ab      0x1d9 c:/altera/13.0sp1/nios2eds/bin/gnu/h-i686-mingw32/bin/../lib/gcc/nios2-elf/4.1.2/../../../../nios2-elf/lib\libc.a(lib_a-freer.o)
 .debug_abbrev  0x00001384      0x1a3 c:/altera/13.0sp1/nios2eds/bin/gnu/h-i686-mingw32/bin/../lib/gcc/nios2-elf/4.1.2/../../../../nios2-elf/lib\libc.a(lib_a-fvwrite.o)
 .debug_abbrev  0x00001527      0x1e3 c:/altera/13.0sp1/nios2eds/bin/gnu/h-i686-mingw32/bin/../lib/gcc/nios2-elf/4.1.2/../../../../nios2-elf/lib\libc.a(lib_a-fwalk.o)
 .debug_abbrev  0x0000170a      0x157 c:/altera/13.0sp1/nios2eds/bin/gnu/h-i686-mingw32/bin/../lib/gcc/nios2-elf/4.1.2/../../../../nios2-elf/lib\libc.a(lib_a-impure.o)
 .debug_abbrev  0x00001861      0x1ed c:/altera/13.0sp1/nios2eds/bin/gnu/h-i686-mingw32/bin/../lib/gcc/nios2-elf/4.1.2/../../../../nios2-elf/lib\libc.a(lib_a-locale.o)
 .debug_abbrev  0x00001a4e      0x197 c:/altera/13.0sp1/nios2eds/bin/gnu/h-i686-mingw32/bin/../lib/gcc/nios2-elf/4.1.2/../../../../nios2-elf/lib\libc.a(lib_a-makebuf.o)
 .debug_abbrev  0x00001be5      0x216 c:/altera/13.0sp1/nios2eds/bin/gnu/h-i686-mingw32/bin/../lib/gcc/nios2-elf/4.1.2/../../../../nios2-elf/lib\libc.a(lib_a-mallocr.o)
 .debug_abbrev  0x00001dfb       0xb5 c:/altera/13.0sp1/nios2eds/bin/gnu/h-i686-mingw32/bin/../lib/gcc/nios2-elf/4.1.2/../../../../nios2-elf/lib\libc.a(lib_a-memchr.o)
 .debug_abbrev  0x00001eb0       0xb5 c:/altera/13.0sp1/nios2eds/bin/gnu/h-i686-mingw32/bin/../lib/gcc/nios2-elf/4.1.2/../../../../nios2-elf/lib\libc.a(lib_a-memcpy.o)
 .debug_abbrev  0x00001f65       0xb5 c:/altera/13.0sp1/nios2eds/bin/gnu/h-i686-mingw32/bin/../lib/gcc/nios2-elf/4.1.2/../../../../nios2-elf/lib\libc.a(lib_a-memmove.o)
 .debug_abbrev  0x0000201a       0xb8 c:/altera/13.0sp1/nios2eds/bin/gnu/h-i686-mingw32/bin/../lib/gcc/nios2-elf/4.1.2/../../../../nios2-elf/lib\libc.a(lib_a-memset.o)
 .debug_abbrev  0x000020d2      0x297 c:/altera/13.0sp1/nios2eds/bin/gnu/h-i686-mingw32/bin/../lib/gcc/nios2-elf/4.1.2/../../../../nios2-elf/lib\libc.a(lib_a-mprec.o)
 .debug_abbrev  0x00002369      0x1c3 c:/altera/13.0sp1/nios2eds/bin/gnu/h-i686-mingw32/bin/../lib/gcc/nios2-elf/4.1.2/../../../../nios2-elf/lib\libc.a(lib_a-reallocr.o)
 .debug_abbrev  0x0000252c       0x79 c:/altera/13.0sp1/nios2eds/bin/gnu/h-i686-mingw32/bin/../lib/gcc/nios2-elf/4.1.2/../../../../nios2-elf/lib\libc.a(lib_a-s_isinfd.o)
 .debug_abbrev  0x000025a5       0x79 c:/altera/13.0sp1/nios2eds/bin/gnu/h-i686-mingw32/bin/../lib/gcc/nios2-elf/4.1.2/../../../../nios2-elf/lib\libc.a(lib_a-s_isnand.o)
 .debug_abbrev  0x0000261e      0x18c c:/altera/13.0sp1/nios2eds/bin/gnu/h-i686-mingw32/bin/../lib/gcc/nios2-elf/4.1.2/../../../../nios2-elf/lib\libc.a(lib_a-sbrkr.o)
 .debug_abbrev  0x000027aa      0x1c9 c:/altera/13.0sp1/nios2eds/bin/gnu/h-i686-mingw32/bin/../lib/gcc/nios2-elf/4.1.2/../../../../nios2-elf/lib\libc.a(lib_a-stdio.o)
 .debug_abbrev  0x00002973       0x80 c:/altera/13.0sp1/nios2eds/bin/gnu/h-i686-mingw32/bin/../lib/gcc/nios2-elf/4.1.2/../../../../nios2-elf/lib\libc.a(lib_a-strcmp.o)
 .debug_abbrev  0x000029f3      0x184 c:/altera/13.0sp1/nios2eds/bin/gnu/h-i686-mingw32/bin/../lib/gcc/nios2-elf/4.1.2/../../../../nios2-elf/lib\libc.a(lib_a-writer.o)
 .debug_abbrev  0x00002b77      0x1b8 c:/altera/13.0sp1/nios2eds/bin/gnu/h-i686-mingw32/bin/../lib/gcc/nios2-elf/4.1.2/../../../../nios2-elf/lib\libc.a(lib_a-callocr.o)
 .debug_abbrev  0x00002d2f      0x17f c:/altera/13.0sp1/nios2eds/bin/gnu/h-i686-mingw32/bin/../lib/gcc/nios2-elf/4.1.2/../../../../nios2-elf/lib\libc.a(lib_a-closer.o)
 .debug_abbrev  0x00002eae      0x1a7 c:/altera/13.0sp1/nios2eds/bin/gnu/h-i686-mingw32/bin/../lib/gcc/nios2-elf/4.1.2/../../../../nios2-elf/lib\libc.a(lib_a-fclose.o)
 .debug_abbrev  0x00003055      0x18e c:/altera/13.0sp1/nios2eds/bin/gnu/h-i686-mingw32/bin/../lib/gcc/nios2-elf/4.1.2/../../../../nios2-elf/lib\libc.a(lib_a-fstatr.o)
 .debug_abbrev  0x000031e3       0x3b c:/altera/13.0sp1/nios2eds/bin/gnu/h-i686-mingw32/bin/../lib/gcc/nios2-elf/4.1.2/../../../../nios2-elf/lib\libc.a(lib_a-int_errno.o)
 .debug_abbrev  0x0000321e      0x17f c:/altera/13.0sp1/nios2eds/bin/gnu/h-i686-mingw32/bin/../lib/gcc/nios2-elf/4.1.2/../../../../nios2-elf/lib\libc.a(lib_a-isattyr.o)
 .debug_abbrev  0x0000339d      0x18e c:/altera/13.0sp1/nios2eds/bin/gnu/h-i686-mingw32/bin/../lib/gcc/nios2-elf/4.1.2/../../../../nios2-elf/lib\libc.a(lib_a-lseekr.o)
 .debug_abbrev  0x0000352b      0x17f c:/altera/13.0sp1/nios2eds/bin/gnu/h-i686-mingw32/bin/../lib/gcc/nios2-elf/4.1.2/../../../../nios2-elf/lib\libc.a(lib_a-readr.o)
 .debug_abbrev  0x000036aa      0x16b c:/altera/13.0sp1/nios2eds/bin/gnu/h-i686-mingw32/bin/../lib/gcc/nios2-elf/4.1.2\libgcc.a(_udivdi3.o)
 .debug_abbrev  0x00003815      0x18e c:/altera/13.0sp1/nios2eds/bin/gnu/h-i686-mingw32/bin/../lib/gcc/nios2-elf/4.1.2\libgcc.a(_umoddi3.o)
 .debug_abbrev  0x000039a3      0x1d2 c:/altera/13.0sp1/nios2eds/bin/gnu/h-i686-mingw32/bin/../lib/gcc/nios2-elf/4.1.2\libgcc.a(_addsub_df.o)
 .debug_abbrev  0x00003b75      0x204 c:/altera/13.0sp1/nios2eds/bin/gnu/h-i686-mingw32/bin/../lib/gcc/nios2-elf/4.1.2\libgcc.a(_mul_df.o)
 .debug_abbrev  0x00003d79      0x1e3 c:/altera/13.0sp1/nios2eds/bin/gnu/h-i686-mingw32/bin/../lib/gcc/nios2-elf/4.1.2\libgcc.a(_div_df.o)
 .debug_abbrev  0x00003f5c      0x151 c:/altera/13.0sp1/nios2eds/bin/gnu/h-i686-mingw32/bin/../lib/gcc/nios2-elf/4.1.2\libgcc.a(_eq_df.o)
 .debug_abbrev  0x000040ad      0x151 c:/altera/13.0sp1/nios2eds/bin/gnu/h-i686-mingw32/bin/../lib/gcc/nios2-elf/4.1.2\libgcc.a(_ne_df.o)
 .debug_abbrev  0x000041fe      0x151 c:/altera/13.0sp1/nios2eds/bin/gnu/h-i686-mingw32/bin/../lib/gcc/nios2-elf/4.1.2\libgcc.a(_gt_df.o)
 .debug_abbrev  0x0000434f      0x151 c:/altera/13.0sp1/nios2eds/bin/gnu/h-i686-mingw32/bin/../lib/gcc/nios2-elf/4.1.2\libgcc.a(_ge_df.o)
 .debug_abbrev  0x000044a0      0x151 c:/altera/13.0sp1/nios2eds/bin/gnu/h-i686-mingw32/bin/../lib/gcc/nios2-elf/4.1.2\libgcc.a(_lt_df.o)
 .debug_abbrev  0x000045f1      0x13f c:/altera/13.0sp1/nios2eds/bin/gnu/h-i686-mingw32/bin/../lib/gcc/nios2-elf/4.1.2\libgcc.a(_si_to_df.o)
 .debug_abbrev  0x00004730      0x176 c:/altera/13.0sp1/nios2eds/bin/gnu/h-i686-mingw32/bin/../lib/gcc/nios2-elf/4.1.2\libgcc.a(_df_to_si.o)
 .debug_abbrev  0x000048a6       0xba c:/altera/13.0sp1/nios2eds/bin/gnu/h-i686-mingw32/bin/../lib/gcc/nios2-elf/4.1.2\libgcc.a(_thenan_df.o)
 .debug_abbrev  0x00004960      0x155 c:/altera/13.0sp1/nios2eds/bin/gnu/h-i686-mingw32/bin/../lib/gcc/nios2-elf/4.1.2\libgcc.a(_usi_to_df.o)
 .debug_abbrev  0x00004ab5       0xe0 c:/altera/13.0sp1/nios2eds/bin/gnu/h-i686-mingw32/bin/../lib/gcc/nios2-elf/4.1.2\libgcc.a(lib2-divmod.o)
 .debug_abbrev  0x00004b95       0xee c:/altera/13.0sp1/nios2eds/bin/gnu/h-i686-mingw32/bin/../lib/gcc/nios2-elf/4.1.2\libgcc.a(_muldi3.o)
 .debug_abbrev  0x00004c83       0x61 c:/altera/13.0sp1/nios2eds/bin/gnu/h-i686-mingw32/bin/../lib/gcc/nios2-elf/4.1.2\libgcc.a(_clz.o)
 .debug_abbrev  0x00004ce4       0xb9 c:/altera/13.0sp1/nios2eds/bin/gnu/h-i686-mingw32/bin/../lib/gcc/nios2-elf/4.1.2\libgcc.a(_clzsi2.o)
 .debug_abbrev  0x00004d9d      0x1b1 c:/altera/13.0sp1/nios2eds/bin/gnu/h-i686-mingw32/bin/../lib/gcc/nios2-elf/4.1.2\libgcc.a(_pack_df.o)
 .debug_abbrev  0x00004f4e      0x149 c:/altera/13.0sp1/nios2eds/bin/gnu/h-i686-mingw32/bin/../lib/gcc/nios2-elf/4.1.2\libgcc.a(_unpack_df.o)
 .debug_abbrev  0x00005097      0x132 c:/altera/13.0sp1/nios2eds/bin/gnu/h-i686-mingw32/bin/../lib/gcc/nios2-elf/4.1.2\libgcc.a(_fpcmp_parts_df.o)
 .debug_abbrev  0x000051c9      0x102 ../Ascensor_bsp/\libucosii_bsp.a(alt_close.o)
 .debug_abbrev  0x000052cb      0x10a ../Ascensor_bsp/\libucosii_bsp.a(alt_dev.o)
 .debug_abbrev  0x000053d5       0x5e ../Ascensor_bsp/\libucosii_bsp.a(alt_errno.o)
 .debug_abbrev  0x00005433      0x102 ../Ascensor_bsp/\libucosii_bsp.a(alt_fstat.o)
 .debug_abbrev  0x00005535      0x180 ../Ascensor_bsp/\libucosii_bsp.a(alt_irq_register.o)
 .debug_abbrev  0x000056b5       0x44 ../Ascensor_bsp/\libucosii_bsp.a(alt_irq_vars.o)
 .debug_abbrev  0x000056f9      0x102 ../Ascensor_bsp/\libucosii_bsp.a(alt_isatty.o)
 .debug_abbrev  0x000057fb       0x88 ../Ascensor_bsp/\libucosii_bsp.a(alt_load.o)
 .debug_abbrev  0x00005883      0x102 ../Ascensor_bsp/\libucosii_bsp.a(alt_lseek.o)
 .debug_abbrev  0x00005985      0x120 ../Ascensor_bsp/\libucosii_bsp.a(alt_main.o)
 .debug_abbrev  0x00005aa5      0x102 ../Ascensor_bsp/\libucosii_bsp.a(alt_read.o)
 .debug_abbrev  0x00005ba7       0xd3 ../Ascensor_bsp/\libucosii_bsp.a(alt_release_fd.o)
 .debug_abbrev  0x00005c7a      0x11c ../Ascensor_bsp/\libucosii_bsp.a(alt_sbrk.o)
 .debug_abbrev  0x00005d96      0x107 ../Ascensor_bsp/\libucosii_bsp.a(alt_write.o)
 .debug_abbrev  0x00005e9d      0x1b3 ../Ascensor_bsp/\libucosii_bsp.a(alt_env_lock.o)
 .debug_abbrev  0x00006050      0x234 ../Ascensor_bsp/\libucosii_bsp.a(alt_malloc_lock.o)
 .debug_abbrev  0x00006284      0x2aa ../Ascensor_bsp/\libucosii_bsp.a(os_core.o)
 .debug_abbrev  0x0000652e      0x114 ../Ascensor_bsp/\libucosii_bsp.a(os_dbg.o)
 .debug_abbrev  0x00006642      0x21b ../Ascensor_bsp/\libucosii_bsp.a(os_flag.o)
 .debug_abbrev  0x0000685d      0x1f6 ../Ascensor_bsp/\libucosii_bsp.a(os_mbox.o)
 .debug_abbrev  0x00006a53      0x235 ../Ascensor_bsp/\libucosii_bsp.a(os_mem.o)
 .debug_abbrev  0x00006c88      0x20d ../Ascensor_bsp/\libucosii_bsp.a(os_q.o)
 .debug_abbrev  0x00006e95      0x20d ../Ascensor_bsp/\libucosii_bsp.a(os_sem.o)
 .debug_abbrev  0x000070a2      0x20e ../Ascensor_bsp/\libucosii_bsp.a(os_task.o)
 .debug_abbrev  0x000072b0      0x1de ../Ascensor_bsp/\libucosii_bsp.a(os_time.o)
 .debug_abbrev  0x0000748e      0x1a3 ../Ascensor_bsp/\libucosii_bsp.a(alt_sys_init.o)
 .debug_abbrev  0x00007631      0x13c ../Ascensor_bsp/\libucosii_bsp.a(altera_avalon_jtag_uart_fd.o)
 .debug_abbrev  0x0000776d      0x21e ../Ascensor_bsp/\libucosii_bsp.a(altera_avalon_jtag_uart_init.o)
 .debug_abbrev  0x0000798b      0x135 ../Ascensor_bsp/\libucosii_bsp.a(altera_avalon_jtag_uart_ioctl.o)
 .debug_abbrev  0x00007ac0      0x1ee ../Ascensor_bsp/\libucosii_bsp.a(altera_avalon_jtag_uart_read.o)
 .debug_abbrev  0x00007cae      0x1ea ../Ascensor_bsp/\libucosii_bsp.a(altera_avalon_jtag_uart_write.o)
 .debug_abbrev  0x00007e98      0x137 ../Ascensor_bsp/\libucosii_bsp.a(altera_avalon_timer_sc.o)
 .debug_abbrev  0x00007fcf      0x127 ../Ascensor_bsp/\libucosii_bsp.a(altera_up_avalon_character_lcd.o)
 .debug_abbrev  0x000080f6      0x172 ../Ascensor_bsp/\libucosii_bsp.a(alt_alarm_start.o)
 .debug_abbrev  0x00008268       0x3f ../Ascensor_bsp/\libucosii_bsp.a(alt_dcache_flush_all.o)
 .debug_abbrev  0x000082a7       0xf6 ../Ascensor_bsp/\libucosii_bsp.a(alt_dev_llist_insert.o)
 .debug_abbrev  0x0000839d       0x76 ../Ascensor_bsp/\libucosii_bsp.a(alt_do_ctors.o)
 .debug_abbrev  0x00008413       0x76 ../Ascensor_bsp/\libucosii_bsp.a(alt_do_dtors.o)
 .debug_abbrev  0x00008489       0xd6 ../Ascensor_bsp/\libucosii_bsp.a(alt_find_dev.o)
 .debug_abbrev  0x0000855f       0x3f ../Ascensor_bsp/\libucosii_bsp.a(alt_icache_flush_all.o)
 .debug_abbrev  0x0000859e       0xf7 ../Ascensor_bsp/\libucosii_bsp.a(alt_io_redirect.o)
 .debug_abbrev  0x00008695       0x12 ../Ascensor_bsp/\libucosii_bsp.a(alt_irq_entry.o)
 .debug_abbrev  0x000086a7      0x124 ../Ascensor_bsp/\libucosii_bsp.a(alt_irq_handler.o)
 .debug_abbrev  0x000087cb      0x119 ../Ascensor_bsp/\libucosii_bsp.a(alt_open.o)
 .debug_abbrev  0x000088e4      0x161 ../Ascensor_bsp/\libucosii_bsp.a(alt_tick.o)
 .debug_abbrev  0x00008a45       0x64 ../Ascensor_bsp/\libucosii_bsp.a(altera_nios2_qsys_irq.o)
 .debug_abbrev  0x00008aa9       0x14 ../Ascensor_bsp/\libucosii_bsp.a(os_cpu_a.o)
 .debug_abbrev  0x00008abd      0x1d0 ../Ascensor_bsp/\libucosii_bsp.a(os_cpu_c.o)
 .debug_abbrev  0x00008c8d       0x12 ../Ascensor_bsp/\libucosii_bsp.a(alt_exception_entry.o)
 .debug_abbrev  0x00008c9f       0xd6 ../Ascensor_bsp/\libucosii_bsp.a(alt_find_file.o)
 .debug_abbrev  0x00008d75      0x173 ../Ascensor_bsp/\libucosii_bsp.a(alt_get_fd.o)
 .debug_abbrev  0x00008ee8       0x7a ../Ascensor_bsp/\libucosii_bsp.a(alt_icache_flush.o)
 .debug_abbrev  0x00008f62       0xb7 c:/altera/13.0sp1/nios2eds/bin/gnu/h-i686-mingw32/bin/../lib/gcc/nios2-elf/4.1.2/../../../../nios2-elf/lib\libc.a(lib_a-atexit.o)
 .debug_abbrev  0x00009019      0x16e c:/altera/13.0sp1/nios2eds/bin/gnu/h-i686-mingw32/bin/../lib/gcc/nios2-elf/4.1.2/../../../../nios2-elf/lib\libc.a(lib_a-exit.o)
 .debug_abbrev  0x00009187       0x7c c:/altera/13.0sp1/nios2eds/bin/gnu/h-i686-mingw32/bin/../lib/gcc/nios2-elf/4.1.2/../../../../nios2-elf/lib\libc.a(lib_a-memcmp.o)
 .debug_abbrev  0x00009203      0x1ae c:/altera/13.0sp1/nios2eds/bin/gnu/h-i686-mingw32/bin/../lib/gcc/nios2-elf/4.1.2/../../../../nios2-elf/lib\libc.a(lib_a-__atexit.o)
 .debug_abbrev  0x000093b1      0x1de c:/altera/13.0sp1/nios2eds/bin/gnu/h-i686-mingw32/bin/../lib/gcc/nios2-elf/4.1.2/../../../../nios2-elf/lib\libc.a(lib_a-__call_atexit.o)
 .debug_abbrev  0x0000958f       0x5d c:/altera/13.0sp1/nios2eds/bin/gnu/h-i686-mingw32/bin/../lib/gcc/nios2-elf/4.1.2\libgcc.a(_fixunsdfsi.o)
 .debug_abbrev  0x000095ec       0xaa ../Ascensor_bsp/\libucosii_bsp.a(alt_exit.o)

.debug_line     0x00000000    0x1c764
 *(.debug_line)
 .debug_line    0x00000000       0x6c ../Ascensor_bsp//obj/HAL/src/crt0.o
 .debug_line    0x0000006c      0x9ad obj/default/hello_ucosii.o
 .debug_line    0x00000a19      0x29b c:/altera/13.0sp1/nios2eds/bin/gnu/h-i686-mingw32/bin/../lib/gcc/nios2-elf/4.1.2/../../../../nios2-elf/lib\libc.a(lib_a-printf.o)
 .debug_line    0x00000cb4      0x2f7 c:/altera/13.0sp1/nios2eds/bin/gnu/h-i686-mingw32/bin/../lib/gcc/nios2-elf/4.1.2/../../../../nios2-elf/lib\libc.a(lib_a-puts.o)
 .debug_line    0x00000fab      0x322 c:/altera/13.0sp1/nios2eds/bin/gnu/h-i686-mingw32/bin/../lib/gcc/nios2-elf/4.1.2/../../../../nios2-elf/lib\libc.a(lib_a-sprintf.o)
 .debug_line    0x000012cd      0x26d c:/altera/13.0sp1/nios2eds/bin/gnu/h-i686-mingw32/bin/../lib/gcc/nios2-elf/4.1.2/../../../../nios2-elf/lib\libc.a(lib_a-strlen.o)
 .debug_line    0x0000153a     0x110c c:/altera/13.0sp1/nios2eds/bin/gnu/h-i686-mingw32/bin/../lib/gcc/nios2-elf/4.1.2/../../../../nios2-elf/lib\libc.a(lib_a-vfprintf.o)
 .debug_line    0x00002646      0x2f0 c:/altera/13.0sp1/nios2eds/bin/gnu/h-i686-mingw32/bin/../lib/gcc/nios2-elf/4.1.2/../../../../nios2-elf/lib\libc.a(lib_a-wsetup.o)
 .debug_line    0x00002936     0x12c6 c:/altera/13.0sp1/nios2eds/bin/gnu/h-i686-mingw32/bin/../lib/gcc/nios2-elf/4.1.2/../../../../nios2-elf/lib\libc.a(lib_a-dtoa.o)
 .debug_line    0x00003bfc      0x40d c:/altera/13.0sp1/nios2eds/bin/gnu/h-i686-mingw32/bin/../lib/gcc/nios2-elf/4.1.2/../../../../nios2-elf/lib\libc.a(lib_a-fflush.o)
 .debug_line    0x00004009      0x601 c:/altera/13.0sp1/nios2eds/bin/gnu/h-i686-mingw32/bin/../lib/gcc/nios2-elf/4.1.2/../../../../nios2-elf/lib\libc.a(lib_a-findfp.o)
 .debug_line    0x0000460a      0x5eb c:/altera/13.0sp1/nios2eds/bin/gnu/h-i686-mingw32/bin/../lib/gcc/nios2-elf/4.1.2/../../../../nios2-elf/lib\libc.a(lib_a-freer.o)
 .debug_line    0x00004bf5      0x641 c:/altera/13.0sp1/nios2eds/bin/gnu/h-i686-mingw32/bin/../lib/gcc/nios2-elf/4.1.2/../../../../nios2-elf/lib\libc.a(lib_a-fvwrite.o)
 .debug_line    0x00005236      0x34a c:/altera/13.0sp1/nios2eds/bin/gnu/h-i686-mingw32/bin/../lib/gcc/nios2-elf/4.1.2/../../../../nios2-elf/lib\libc.a(lib_a-fwalk.o)
 .debug_line    0x00005580      0x22d c:/altera/13.0sp1/nios2eds/bin/gnu/h-i686-mingw32/bin/../lib/gcc/nios2-elf/4.1.2/../../../../nios2-elf/lib\libc.a(lib_a-impure.o)
 .debug_line    0x000057ad      0x2c8 c:/altera/13.0sp1/nios2eds/bin/gnu/h-i686-mingw32/bin/../lib/gcc/nios2-elf/4.1.2/../../../../nios2-elf/lib\libc.a(lib_a-locale.o)
 .debug_line    0x00005a75      0x3c3 c:/altera/13.0sp1/nios2eds/bin/gnu/h-i686-mingw32/bin/../lib/gcc/nios2-elf/4.1.2/../../../../nios2-elf/lib\libc.a(lib_a-makebuf.o)
 .debug_line    0x00005e38      0x80a c:/altera/13.0sp1/nios2eds/bin/gnu/h-i686-mingw32/bin/../lib/gcc/nios2-elf/4.1.2/../../../../nios2-elf/lib\libc.a(lib_a-mallocr.o)
 .debug_line    0x00006642      0x303 c:/altera/13.0sp1/nios2eds/bin/gnu/h-i686-mingw32/bin/../lib/gcc/nios2-elf/4.1.2/../../../../nios2-elf/lib\libc.a(lib_a-memchr.o)
 .debug_line    0x00006945      0x1ac c:/altera/13.0sp1/nios2eds/bin/gnu/h-i686-mingw32/bin/../lib/gcc/nios2-elf/4.1.2/../../../../nios2-elf/lib\libc.a(lib_a-memcpy.o)
 .debug_line    0x00006af1      0x30a c:/altera/13.0sp1/nios2eds/bin/gnu/h-i686-mingw32/bin/../lib/gcc/nios2-elf/4.1.2/../../../../nios2-elf/lib\libc.a(lib_a-memmove.o)
 .debug_line    0x00006dfb      0x301 c:/altera/13.0sp1/nios2eds/bin/gnu/h-i686-mingw32/bin/../lib/gcc/nios2-elf/4.1.2/../../../../nios2-elf/lib\libc.a(lib_a-memset.o)
 .debug_line    0x000070fc     0x1243 c:/altera/13.0sp1/nios2eds/bin/gnu/h-i686-mingw32/bin/../lib/gcc/nios2-elf/4.1.2/../../../../nios2-elf/lib\libc.a(lib_a-mprec.o)
 .debug_line    0x0000833f      0x58a c:/altera/13.0sp1/nios2eds/bin/gnu/h-i686-mingw32/bin/../lib/gcc/nios2-elf/4.1.2/../../../../nios2-elf/lib\libc.a(lib_a-reallocr.o)
 .debug_line    0x000088c9      0x222 c:/altera/13.0sp1/nios2eds/bin/gnu/h-i686-mingw32/bin/../lib/gcc/nios2-elf/4.1.2/../../../../nios2-elf/lib\libc.a(lib_a-s_isinfd.o)
 .debug_line    0x00008aeb      0x21a c:/altera/13.0sp1/nios2eds/bin/gnu/h-i686-mingw32/bin/../lib/gcc/nios2-elf/4.1.2/../../../../nios2-elf/lib\libc.a(lib_a-s_isnand.o)
 .debug_line    0x00008d05      0x299 c:/altera/13.0sp1/nios2eds/bin/gnu/h-i686-mingw32/bin/../lib/gcc/nios2-elf/4.1.2/../../../../nios2-elf/lib\libc.a(lib_a-sbrkr.o)
 .debug_line    0x00008f9e      0x38c c:/altera/13.0sp1/nios2eds/bin/gnu/h-i686-mingw32/bin/../lib/gcc/nios2-elf/4.1.2/../../../../nios2-elf/lib\libc.a(lib_a-stdio.o)
 .debug_line    0x0000932a      0x2d5 c:/altera/13.0sp1/nios2eds/bin/gnu/h-i686-mingw32/bin/../lib/gcc/nios2-elf/4.1.2/../../../../nios2-elf/lib\libc.a(lib_a-strcmp.o)
 .debug_line    0x000095ff      0x29a c:/altera/13.0sp1/nios2eds/bin/gnu/h-i686-mingw32/bin/../lib/gcc/nios2-elf/4.1.2/../../../../nios2-elf/lib\libc.a(lib_a-writer.o)
 .debug_line    0x00009899      0x25c c:/altera/13.0sp1/nios2eds/bin/gnu/h-i686-mingw32/bin/../lib/gcc/nios2-elf/4.1.2/../../../../nios2-elf/lib\libc.a(lib_a-callocr.o)
 .debug_line    0x00009af5      0x29a c:/altera/13.0sp1/nios2eds/bin/gnu/h-i686-mingw32/bin/../lib/gcc/nios2-elf/4.1.2/../../../../nios2-elf/lib\libc.a(lib_a-closer.o)
 .debug_line    0x00009d8f      0x2e8 c:/altera/13.0sp1/nios2eds/bin/gnu/h-i686-mingw32/bin/../lib/gcc/nios2-elf/4.1.2/../../../../nios2-elf/lib\libc.a(lib_a-fclose.o)
 .debug_line    0x0000a077      0x264 c:/altera/13.0sp1/nios2eds/bin/gnu/h-i686-mingw32/bin/../lib/gcc/nios2-elf/4.1.2/../../../../nios2-elf/lib\libc.a(lib_a-fstatr.o)
 .debug_line    0x0000a2db      0x1df c:/altera/13.0sp1/nios2eds/bin/gnu/h-i686-mingw32/bin/../lib/gcc/nios2-elf/4.1.2/../../../../nios2-elf/lib\libc.a(lib_a-int_errno.o)
 .debug_line    0x0000a4ba      0x29b c:/altera/13.0sp1/nios2eds/bin/gnu/h-i686-mingw32/bin/../lib/gcc/nios2-elf/4.1.2/../../../../nios2-elf/lib\libc.a(lib_a-isattyr.o)
 .debug_line    0x0000a755      0x29a c:/altera/13.0sp1/nios2eds/bin/gnu/h-i686-mingw32/bin/../lib/gcc/nios2-elf/4.1.2/../../../../nios2-elf/lib\libc.a(lib_a-lseekr.o)
 .debug_line    0x0000a9ef      0x299 c:/altera/13.0sp1/nios2eds/bin/gnu/h-i686-mingw32/bin/../lib/gcc/nios2-elf/4.1.2/../../../../nios2-elf/lib\libc.a(lib_a-readr.o)
 .debug_line    0x0000ac88      0x2f2 c:/altera/13.0sp1/nios2eds/bin/gnu/h-i686-mingw32/bin/../lib/gcc/nios2-elf/4.1.2\libgcc.a(_udivdi3.o)
 .debug_line    0x0000af7a      0x37d c:/altera/13.0sp1/nios2eds/bin/gnu/h-i686-mingw32/bin/../lib/gcc/nios2-elf/4.1.2\libgcc.a(_umoddi3.o)
 .debug_line    0x0000b2f7      0x430 c:/altera/13.0sp1/nios2eds/bin/gnu/h-i686-mingw32/bin/../lib/gcc/nios2-elf/4.1.2\libgcc.a(_addsub_df.o)
 .debug_line    0x0000b727      0x3e5 c:/altera/13.0sp1/nios2eds/bin/gnu/h-i686-mingw32/bin/../lib/gcc/nios2-elf/4.1.2\libgcc.a(_mul_df.o)
 .debug_line    0x0000bb0c      0x301 c:/altera/13.0sp1/nios2eds/bin/gnu/h-i686-mingw32/bin/../lib/gcc/nios2-elf/4.1.2\libgcc.a(_div_df.o)
 .debug_line    0x0000be0d      0x129 c:/altera/13.0sp1/nios2eds/bin/gnu/h-i686-mingw32/bin/../lib/gcc/nios2-elf/4.1.2\libgcc.a(_eq_df.o)
 .debug_line    0x0000bf36      0x129 c:/altera/13.0sp1/nios2eds/bin/gnu/h-i686-mingw32/bin/../lib/gcc/nios2-elf/4.1.2\libgcc.a(_ne_df.o)
 .debug_line    0x0000c05f      0x129 c:/altera/13.0sp1/nios2eds/bin/gnu/h-i686-mingw32/bin/../lib/gcc/nios2-elf/4.1.2\libgcc.a(_gt_df.o)
 .debug_line    0x0000c188      0x129 c:/altera/13.0sp1/nios2eds/bin/gnu/h-i686-mingw32/bin/../lib/gcc/nios2-elf/4.1.2\libgcc.a(_ge_df.o)
 .debug_line    0x0000c2b1      0x129 c:/altera/13.0sp1/nios2eds/bin/gnu/h-i686-mingw32/bin/../lib/gcc/nios2-elf/4.1.2\libgcc.a(_lt_df.o)
 .debug_line    0x0000c3da      0x175 c:/altera/13.0sp1/nios2eds/bin/gnu/h-i686-mingw32/bin/../lib/gcc/nios2-elf/4.1.2\libgcc.a(_si_to_df.o)
 .debug_line    0x0000c54f      0x149 c:/altera/13.0sp1/nios2eds/bin/gnu/h-i686-mingw32/bin/../lib/gcc/nios2-elf/4.1.2\libgcc.a(_df_to_si.o)
 .debug_line    0x0000c698       0x94 c:/altera/13.0sp1/nios2eds/bin/gnu/h-i686-mingw32/bin/../lib/gcc/nios2-elf/4.1.2\libgcc.a(_thenan_df.o)
 .debug_line    0x0000c72c      0x189 c:/altera/13.0sp1/nios2eds/bin/gnu/h-i686-mingw32/bin/../lib/gcc/nios2-elf/4.1.2\libgcc.a(_usi_to_df.o)
 .debug_line    0x0000c8b5      0x24f c:/altera/13.0sp1/nios2eds/bin/gnu/h-i686-mingw32/bin/../lib/gcc/nios2-elf/4.1.2\libgcc.a(lib2-divmod.o)
 .debug_line    0x0000cb04      0x11f c:/altera/13.0sp1/nios2eds/bin/gnu/h-i686-mingw32/bin/../lib/gcc/nios2-elf/4.1.2\libgcc.a(_muldi3.o)
 .debug_line    0x0000cc23       0xaa c:/altera/13.0sp1/nios2eds/bin/gnu/h-i686-mingw32/bin/../lib/gcc/nios2-elf/4.1.2\libgcc.a(_clz.o)
 .debug_line    0x0000cccd      0x105 c:/altera/13.0sp1/nios2eds/bin/gnu/h-i686-mingw32/bin/../lib/gcc/nios2-elf/4.1.2\libgcc.a(_clzsi2.o)
 .debug_line    0x0000cdd2      0x222 c:/altera/13.0sp1/nios2eds/bin/gnu/h-i686-mingw32/bin/../lib/gcc/nios2-elf/4.1.2\libgcc.a(_pack_df.o)
 .debug_line    0x0000cff4      0x1e4 c:/altera/13.0sp1/nios2eds/bin/gnu/h-i686-mingw32/bin/../lib/gcc/nios2-elf/4.1.2\libgcc.a(_unpack_df.o)
 .debug_line    0x0000d1d8      0x187 c:/altera/13.0sp1/nios2eds/bin/gnu/h-i686-mingw32/bin/../lib/gcc/nios2-elf/4.1.2\libgcc.a(_fpcmp_parts_df.o)
 .debug_line    0x0000d35f      0x30d ../Ascensor_bsp/\libucosii_bsp.a(alt_close.o)
 .debug_line    0x0000d66c      0x2d1 ../Ascensor_bsp/\libucosii_bsp.a(alt_dev.o)
 .debug_line    0x0000d93d      0x1aa ../Ascensor_bsp/\libucosii_bsp.a(alt_errno.o)
 .debug_line    0x0000dae7      0x315 ../Ascensor_bsp/\libucosii_bsp.a(alt_fstat.o)
 .debug_line    0x0000ddfc      0x36d ../Ascensor_bsp/\libucosii_bsp.a(alt_irq_register.o)
 .debug_line    0x0000e169       0x72 ../Ascensor_bsp/\libucosii_bsp.a(alt_irq_vars.o)
 .debug_line    0x0000e1db      0x316 ../Ascensor_bsp/\libucosii_bsp.a(alt_isatty.o)
 .debug_line    0x0000e4f1      0x217 ../Ascensor_bsp/\libucosii_bsp.a(alt_load.o)
 .debug_line    0x0000e708      0x315 ../Ascensor_bsp/\libucosii_bsp.a(alt_lseek.o)
 .debug_line    0x0000ea1d      0x35d ../Ascensor_bsp/\libucosii_bsp.a(alt_main.o)
 .debug_line    0x0000ed7a      0x33c ../Ascensor_bsp/\libucosii_bsp.a(alt_read.o)
 .debug_line    0x0000f0b6      0x28d ../Ascensor_bsp/\libucosii_bsp.a(alt_release_fd.o)
 .debug_line    0x0000f343      0x27a ../Ascensor_bsp/\libucosii_bsp.a(alt_sbrk.o)
 .debug_line    0x0000f5bd      0x33d ../Ascensor_bsp/\libucosii_bsp.a(alt_write.o)
 .debug_line    0x0000f8fa      0x2d8 ../Ascensor_bsp/\libucosii_bsp.a(alt_env_lock.o)
 .debug_line    0x0000fbd2      0x394 ../Ascensor_bsp/\libucosii_bsp.a(alt_malloc_lock.o)
 .debug_line    0x0000ff66     0x167c ../Ascensor_bsp/\libucosii_bsp.a(os_core.o)
 .debug_line    0x000115e2      0x3a1 ../Ascensor_bsp/\libucosii_bsp.a(os_dbg.o)
 .debug_line    0x00011983     0x1200 ../Ascensor_bsp/\libucosii_bsp.a(os_flag.o)
 .debug_line    0x00012b83      0xacf ../Ascensor_bsp/\libucosii_bsp.a(os_mbox.o)
 .debug_line    0x00013652      0x7a3 ../Ascensor_bsp/\libucosii_bsp.a(os_mem.o)
 .debug_line    0x00013df5      0xe84 ../Ascensor_bsp/\libucosii_bsp.a(os_q.o)
 .debug_line    0x00014c79      0xa3c ../Ascensor_bsp/\libucosii_bsp.a(os_sem.o)
 .debug_line    0x000156b5     0x1145 ../Ascensor_bsp/\libucosii_bsp.a(os_task.o)
 .debug_line    0x000167fa      0x548 ../Ascensor_bsp/\libucosii_bsp.a(os_time.o)
 .debug_line    0x00016d42      0x39a ../Ascensor_bsp/\libucosii_bsp.a(alt_sys_init.o)
 .debug_line    0x000170dc      0x330 ../Ascensor_bsp/\libucosii_bsp.a(altera_avalon_jtag_uart_fd.o)
 .debug_line    0x0001740c      0x5af ../Ascensor_bsp/\libucosii_bsp.a(altera_avalon_jtag_uart_init.o)
 .debug_line    0x000179bb      0x36d ../Ascensor_bsp/\libucosii_bsp.a(altera_avalon_jtag_uart_ioctl.o)
 .debug_line    0x00017d28      0x4ab ../Ascensor_bsp/\libucosii_bsp.a(altera_avalon_jtag_uart_read.o)
 .debug_line    0x000181d3      0x4b9 ../Ascensor_bsp/\libucosii_bsp.a(altera_avalon_jtag_uart_write.o)
 .debug_line    0x0001868c      0x2ca ../Ascensor_bsp/\libucosii_bsp.a(altera_avalon_timer_sc.o)
 .debug_line    0x00018956      0x4d9 ../Ascensor_bsp/\libucosii_bsp.a(altera_up_avalon_character_lcd.o)
 .debug_line    0x00018e2f      0x2f5 ../Ascensor_bsp/\libucosii_bsp.a(alt_alarm_start.o)
 .debug_line    0x00019124      0x1b5 ../Ascensor_bsp/\libucosii_bsp.a(alt_dcache_flush_all.o)
 .debug_line    0x000192d9      0x25a ../Ascensor_bsp/\libucosii_bsp.a(alt_dev_llist_insert.o)
 .debug_line    0x00019533       0x83 ../Ascensor_bsp/\libucosii_bsp.a(alt_do_ctors.o)
 .debug_line    0x000195b6       0x83 ../Ascensor_bsp/\libucosii_bsp.a(alt_do_dtors.o)
 .debug_line    0x00019639      0x2ee ../Ascensor_bsp/\libucosii_bsp.a(alt_find_dev.o)
 .debug_line    0x00019927      0x1bd ../Ascensor_bsp/\libucosii_bsp.a(alt_icache_flush_all.o)
 .debug_line    0x00019ae4      0x337 ../Ascensor_bsp/\libucosii_bsp.a(alt_io_redirect.o)
 .debug_line    0x00019e1b       0x6b ../Ascensor_bsp/\libucosii_bsp.a(alt_irq_entry.o)
 .debug_line    0x00019e86      0x2dd ../Ascensor_bsp/\libucosii_bsp.a(alt_irq_handler.o)
 .debug_line    0x0001a163      0x373 ../Ascensor_bsp/\libucosii_bsp.a(alt_open.o)
 .debug_line    0x0001a4d6      0x32f ../Ascensor_bsp/\libucosii_bsp.a(alt_tick.o)
 .debug_line    0x0001a805      0x1e7 ../Ascensor_bsp/\libucosii_bsp.a(altera_nios2_qsys_irq.o)
 .debug_line    0x0001a9ec       0x86 ../Ascensor_bsp/\libucosii_bsp.a(os_cpu_a.o)
 .debug_line    0x0001aa72      0x341 ../Ascensor_bsp/\libucosii_bsp.a(os_cpu_c.o)
 .debug_line    0x0001adb3       0xab ../Ascensor_bsp/\libucosii_bsp.a(alt_exception_entry.o)
 .debug_line    0x0001ae5e      0x2ff ../Ascensor_bsp/\libucosii_bsp.a(alt_find_file.o)
 .debug_line    0x0001b15d      0x32f ../Ascensor_bsp/\libucosii_bsp.a(alt_get_fd.o)
 .debug_line    0x0001b48c      0x1f9 ../Ascensor_bsp/\libucosii_bsp.a(alt_icache_flush.o)
 .debug_line    0x0001b685      0x200 c:/altera/13.0sp1/nios2eds/bin/gnu/h-i686-mingw32/bin/../lib/gcc/nios2-elf/4.1.2/../../../../nios2-elf/lib\libc.a(lib_a-atexit.o)
 .debug_line    0x0001b885      0x238 c:/altera/13.0sp1/nios2eds/bin/gnu/h-i686-mingw32/bin/../lib/gcc/nios2-elf/4.1.2/../../../../nios2-elf/lib\libc.a(lib_a-exit.o)
 .debug_line    0x0001babd      0x29f c:/altera/13.0sp1/nios2eds/bin/gnu/h-i686-mingw32/bin/../lib/gcc/nios2-elf/4.1.2/../../../../nios2-elf/lib\libc.a(lib_a-memcmp.o)
 .debug_line    0x0001bd5c      0x313 c:/altera/13.0sp1/nios2eds/bin/gnu/h-i686-mingw32/bin/../lib/gcc/nios2-elf/4.1.2/../../../../nios2-elf/lib\libc.a(lib_a-__atexit.o)
 .debug_line    0x0001c06f      0x367 c:/altera/13.0sp1/nios2eds/bin/gnu/h-i686-mingw32/bin/../lib/gcc/nios2-elf/4.1.2/../../../../nios2-elf/lib\libc.a(lib_a-__call_atexit.o)
 .debug_line    0x0001c3d6       0xff c:/altera/13.0sp1/nios2eds/bin/gnu/h-i686-mingw32/bin/../lib/gcc/nios2-elf/4.1.2\libgcc.a(_fixunsdfsi.o)
 .debug_line    0x0001c4d5      0x28f ../Ascensor_bsp/\libucosii_bsp.a(alt_exit.o)

.debug_frame    0x00000000     0x2774
 *(.debug_frame)
 .debug_frame   0x00000000      0x12c obj/default/hello_ucosii.o
 .debug_frame   0x0000012c       0x40 c:/altera/13.0sp1/nios2eds/bin/gnu/h-i686-mingw32/bin/../lib/gcc/nios2-elf/4.1.2/../../../../nios2-elf/lib\libc.a(lib_a-printf.o)
 .debug_frame   0x0000016c       0x3c c:/altera/13.0sp1/nios2eds/bin/gnu/h-i686-mingw32/bin/../lib/gcc/nios2-elf/4.1.2/../../../../nios2-elf/lib\libc.a(lib_a-puts.o)
 .debug_frame   0x000001a8       0x40 c:/altera/13.0sp1/nios2eds/bin/gnu/h-i686-mingw32/bin/../lib/gcc/nios2-elf/4.1.2/../../../../nios2-elf/lib\libc.a(lib_a-sprintf.o)
 .debug_frame   0x000001e8       0x20 c:/altera/13.0sp1/nios2eds/bin/gnu/h-i686-mingw32/bin/../lib/gcc/nios2-elf/4.1.2/../../../../nios2-elf/lib\libc.a(lib_a-strlen.o)
 .debug_frame   0x00000208       0x64 c:/altera/13.0sp1/nios2eds/bin/gnu/h-i686-mingw32/bin/../lib/gcc/nios2-elf/4.1.2/../../../../nios2-elf/lib\libc.a(lib_a-vfprintf.o)
 .debug_frame   0x0000026c       0x2c c:/altera/13.0sp1/nios2eds/bin/gnu/h-i686-mingw32/bin/../lib/gcc/nios2-elf/4.1.2/../../../../nios2-elf/lib\libc.a(lib_a-wsetup.o)
 .debug_frame   0x00000298       0x64 c:/altera/13.0sp1/nios2eds/bin/gnu/h-i686-mingw32/bin/../lib/gcc/nios2-elf/4.1.2/../../../../nios2-elf/lib\libc.a(lib_a-dtoa.o)
 .debug_frame   0x000002fc       0x40 c:/altera/13.0sp1/nios2eds/bin/gnu/h-i686-mingw32/bin/../lib/gcc/nios2-elf/4.1.2/../../../../nios2-elf/lib\libc.a(lib_a-fflush.o)
 .debug_frame   0x0000033c      0x118 c:/altera/13.0sp1/nios2eds/bin/gnu/h-i686-mingw32/bin/../lib/gcc/nios2-elf/4.1.2/../../../../nios2-elf/lib\libc.a(lib_a-findfp.o)
 .debug_frame   0x00000454       0x4c c:/altera/13.0sp1/nios2eds/bin/gnu/h-i686-mingw32/bin/../lib/gcc/nios2-elf/4.1.2/../../../../nios2-elf/lib\libc.a(lib_a-freer.o)
 .debug_frame   0x000004a0       0x38 c:/altera/13.0sp1/nios2eds/bin/gnu/h-i686-mingw32/bin/../lib/gcc/nios2-elf/4.1.2/../../../../nios2-elf/lib\libc.a(lib_a-fvwrite.o)
 .debug_frame   0x000004d8       0x60 c:/altera/13.0sp1/nios2eds/bin/gnu/h-i686-mingw32/bin/../lib/gcc/nios2-elf/4.1.2/../../../../nios2-elf/lib\libc.a(lib_a-fwalk.o)
 .debug_frame   0x00000538       0x70 c:/altera/13.0sp1/nios2eds/bin/gnu/h-i686-mingw32/bin/../lib/gcc/nios2-elf/4.1.2/../../../../nios2-elf/lib\libc.a(lib_a-locale.o)
 .debug_frame   0x000005a8       0x2c c:/altera/13.0sp1/nios2eds/bin/gnu/h-i686-mingw32/bin/../lib/gcc/nios2-elf/4.1.2/../../../../nios2-elf/lib\libc.a(lib_a-makebuf.o)
 .debug_frame   0x000005d4       0x38 c:/altera/13.0sp1/nios2eds/bin/gnu/h-i686-mingw32/bin/../lib/gcc/nios2-elf/4.1.2/../../../../nios2-elf/lib\libc.a(lib_a-mallocr.o)
 .debug_frame   0x0000060c       0x20 c:/altera/13.0sp1/nios2eds/bin/gnu/h-i686-mingw32/bin/../lib/gcc/nios2-elf/4.1.2/../../../../nios2-elf/lib\libc.a(lib_a-memchr.o)
 .debug_frame   0x0000062c       0x20 c:/altera/13.0sp1/nios2eds/bin/gnu/h-i686-mingw32/bin/../lib/gcc/nios2-elf/4.1.2/../../../../nios2-elf/lib\libc.a(lib_a-memcpy.o)
 .debug_frame   0x0000064c       0x20 c:/altera/13.0sp1/nios2eds/bin/gnu/h-i686-mingw32/bin/../lib/gcc/nios2-elf/4.1.2/../../../../nios2-elf/lib\libc.a(lib_a-memmove.o)
 .debug_frame   0x0000066c       0x20 c:/altera/13.0sp1/nios2eds/bin/gnu/h-i686-mingw32/bin/../lib/gcc/nios2-elf/4.1.2/../../../../nios2-elf/lib\libc.a(lib_a-memset.o)
 .debug_frame   0x0000068c      0x218 c:/altera/13.0sp1/nios2eds/bin/gnu/h-i686-mingw32/bin/../lib/gcc/nios2-elf/4.1.2/../../../../nios2-elf/lib\libc.a(lib_a-mprec.o)
 .debug_frame   0x000008a4       0x38 c:/altera/13.0sp1/nios2eds/bin/gnu/h-i686-mingw32/bin/../lib/gcc/nios2-elf/4.1.2/../../../../nios2-elf/lib\libc.a(lib_a-reallocr.o)
 .debug_frame   0x000008dc       0x20 c:/altera/13.0sp1/nios2eds/bin/gnu/h-i686-mingw32/bin/../lib/gcc/nios2-elf/4.1.2/../../../../nios2-elf/lib\libc.a(lib_a-s_isinfd.o)
 .debug_frame   0x000008fc       0x20 c:/altera/13.0sp1/nios2eds/bin/gnu/h-i686-mingw32/bin/../lib/gcc/nios2-elf/4.1.2/../../../../nios2-elf/lib\libc.a(lib_a-s_isnand.o)
 .debug_frame   0x0000091c       0x2c c:/altera/13.0sp1/nios2eds/bin/gnu/h-i686-mingw32/bin/../lib/gcc/nios2-elf/4.1.2/../../../../nios2-elf/lib\libc.a(lib_a-sbrkr.o)
 .debug_frame   0x00000948       0x78 c:/altera/13.0sp1/nios2eds/bin/gnu/h-i686-mingw32/bin/../lib/gcc/nios2-elf/4.1.2/../../../../nios2-elf/lib\libc.a(lib_a-stdio.o)
 .debug_frame   0x000009c0       0x20 c:/altera/13.0sp1/nios2eds/bin/gnu/h-i686-mingw32/bin/../lib/gcc/nios2-elf/4.1.2/../../../../nios2-elf/lib\libc.a(lib_a-strcmp.o)
 .debug_frame   0x000009e0       0x2c c:/altera/13.0sp1/nios2eds/bin/gnu/h-i686-mingw32/bin/../lib/gcc/nios2-elf/4.1.2/../../../../nios2-elf/lib\libc.a(lib_a-writer.o)
 .debug_frame   0x00000a0c       0x28 c:/altera/13.0sp1/nios2eds/bin/gnu/h-i686-mingw32/bin/../lib/gcc/nios2-elf/4.1.2/../../../../nios2-elf/lib\libc.a(lib_a-callocr.o)
 .debug_frame   0x00000a34       0x2c c:/altera/13.0sp1/nios2eds/bin/gnu/h-i686-mingw32/bin/../lib/gcc/nios2-elf/4.1.2/../../../../nios2-elf/lib\libc.a(lib_a-closer.o)
 .debug_frame   0x00000a60       0x3c c:/altera/13.0sp1/nios2eds/bin/gnu/h-i686-mingw32/bin/../lib/gcc/nios2-elf/4.1.2/../../../../nios2-elf/lib\libc.a(lib_a-fclose.o)
 .debug_frame   0x00000a9c       0x2c c:/altera/13.0sp1/nios2eds/bin/gnu/h-i686-mingw32/bin/../lib/gcc/nios2-elf/4.1.2/../../../../nios2-elf/lib\libc.a(lib_a-fstatr.o)
 .debug_frame   0x00000ac8       0x2c c:/altera/13.0sp1/nios2eds/bin/gnu/h-i686-mingw32/bin/../lib/gcc/nios2-elf/4.1.2/../../../../nios2-elf/lib\libc.a(lib_a-isattyr.o)
 .debug_frame   0x00000af4       0x2c c:/altera/13.0sp1/nios2eds/bin/gnu/h-i686-mingw32/bin/../lib/gcc/nios2-elf/4.1.2/../../../../nios2-elf/lib\libc.a(lib_a-lseekr.o)
 .debug_frame   0x00000b20       0x2c c:/altera/13.0sp1/nios2eds/bin/gnu/h-i686-mingw32/bin/../lib/gcc/nios2-elf/4.1.2/../../../../nios2-elf/lib\libc.a(lib_a-readr.o)
 .debug_frame   0x00000b4c       0x38 c:/altera/13.0sp1/nios2eds/bin/gnu/h-i686-mingw32/bin/../lib/gcc/nios2-elf/4.1.2\libgcc.a(_udivdi3.o)
 .debug_frame   0x00000b84       0x38 c:/altera/13.0sp1/nios2eds/bin/gnu/h-i686-mingw32/bin/../lib/gcc/nios2-elf/4.1.2\libgcc.a(_umoddi3.o)
 .debug_frame   0x00000bbc       0x70 c:/altera/13.0sp1/nios2eds/bin/gnu/h-i686-mingw32/bin/../lib/gcc/nios2-elf/4.1.2\libgcc.a(_addsub_df.o)
 .debug_frame   0x00000c2c       0x3c c:/altera/13.0sp1/nios2eds/bin/gnu/h-i686-mingw32/bin/../lib/gcc/nios2-elf/4.1.2\libgcc.a(_mul_df.o)
 .debug_frame   0x00000c68       0x30 c:/altera/13.0sp1/nios2eds/bin/gnu/h-i686-mingw32/bin/../lib/gcc/nios2-elf/4.1.2\libgcc.a(_div_df.o)
 .debug_frame   0x00000c98       0x2c c:/altera/13.0sp1/nios2eds/bin/gnu/h-i686-mingw32/bin/../lib/gcc/nios2-elf/4.1.2\libgcc.a(_eq_df.o)
 .debug_frame   0x00000cc4       0x2c c:/altera/13.0sp1/nios2eds/bin/gnu/h-i686-mingw32/bin/../lib/gcc/nios2-elf/4.1.2\libgcc.a(_ne_df.o)
 .debug_frame   0x00000cf0       0x2c c:/altera/13.0sp1/nios2eds/bin/gnu/h-i686-mingw32/bin/../lib/gcc/nios2-elf/4.1.2\libgcc.a(_gt_df.o)
 .debug_frame   0x00000d1c       0x2c c:/altera/13.0sp1/nios2eds/bin/gnu/h-i686-mingw32/bin/../lib/gcc/nios2-elf/4.1.2\libgcc.a(_ge_df.o)
 .debug_frame   0x00000d48       0x2c c:/altera/13.0sp1/nios2eds/bin/gnu/h-i686-mingw32/bin/../lib/gcc/nios2-elf/4.1.2\libgcc.a(_lt_df.o)
 .debug_frame   0x00000d74       0x30 c:/altera/13.0sp1/nios2eds/bin/gnu/h-i686-mingw32/bin/../lib/gcc/nios2-elf/4.1.2\libgcc.a(_si_to_df.o)
 .debug_frame   0x00000da4       0x28 c:/altera/13.0sp1/nios2eds/bin/gnu/h-i686-mingw32/bin/../lib/gcc/nios2-elf/4.1.2\libgcc.a(_df_to_si.o)
 .debug_frame   0x00000dcc       0x38 c:/altera/13.0sp1/nios2eds/bin/gnu/h-i686-mingw32/bin/../lib/gcc/nios2-elf/4.1.2\libgcc.a(_usi_to_df.o)
 .debug_frame   0x00000e04       0x70 c:/altera/13.0sp1/nios2eds/bin/gnu/h-i686-mingw32/bin/../lib/gcc/nios2-elf/4.1.2\libgcc.a(lib2-divmod.o)
 .debug_frame   0x00000e74       0x2c c:/altera/13.0sp1/nios2eds/bin/gnu/h-i686-mingw32/bin/../lib/gcc/nios2-elf/4.1.2\libgcc.a(_muldi3.o)
 .debug_frame   0x00000ea0       0x20 c:/altera/13.0sp1/nios2eds/bin/gnu/h-i686-mingw32/bin/../lib/gcc/nios2-elf/4.1.2\libgcc.a(_clzsi2.o)
 .debug_frame   0x00000ec0       0x2c c:/altera/13.0sp1/nios2eds/bin/gnu/h-i686-mingw32/bin/../lib/gcc/nios2-elf/4.1.2\libgcc.a(_pack_df.o)
 .debug_frame   0x00000eec       0x20 c:/altera/13.0sp1/nios2eds/bin/gnu/h-i686-mingw32/bin/../lib/gcc/nios2-elf/4.1.2\libgcc.a(_unpack_df.o)
 .debug_frame   0x00000f0c       0x20 c:/altera/13.0sp1/nios2eds/bin/gnu/h-i686-mingw32/bin/../lib/gcc/nios2-elf/4.1.2\libgcc.a(_fpcmp_parts_df.o)
 .debug_frame   0x00000f2c       0x48 ../Ascensor_bsp/\libucosii_bsp.a(alt_close.o)
 .debug_frame   0x00000f74       0x2c ../Ascensor_bsp/\libucosii_bsp.a(alt_dev.o)
 .debug_frame   0x00000fa0       0x48 ../Ascensor_bsp/\libucosii_bsp.a(alt_fstat.o)
 .debug_frame   0x00000fe8       0x2c ../Ascensor_bsp/\libucosii_bsp.a(alt_irq_register.o)
 .debug_frame   0x00001014       0x48 ../Ascensor_bsp/\libucosii_bsp.a(alt_isatty.o)
 .debug_frame   0x0000105c       0x48 ../Ascensor_bsp/\libucosii_bsp.a(alt_load.o)
 .debug_frame   0x000010a4       0x48 ../Ascensor_bsp/\libucosii_bsp.a(alt_lseek.o)
 .debug_frame   0x000010ec       0x2c ../Ascensor_bsp/\libucosii_bsp.a(alt_main.o)
 .debug_frame   0x00001118       0x48 ../Ascensor_bsp/\libucosii_bsp.a(alt_read.o)
 .debug_frame   0x00001160       0x2c ../Ascensor_bsp/\libucosii_bsp.a(alt_release_fd.o)
 .debug_frame   0x0000118c       0x2c ../Ascensor_bsp/\libucosii_bsp.a(alt_sbrk.o)
 .debug_frame   0x000011b8       0x48 ../Ascensor_bsp/\libucosii_bsp.a(alt_write.o)
 .debug_frame   0x00001200       0x4c ../Ascensor_bsp/\libucosii_bsp.a(alt_env_lock.o)
 .debug_frame   0x0000124c       0x4c ../Ascensor_bsp/\libucosii_bsp.a(alt_malloc_lock.o)
 .debug_frame   0x00001298      0x3e4 ../Ascensor_bsp/\libucosii_bsp.a(os_core.o)
 .debug_frame   0x0000167c       0x2c ../Ascensor_bsp/\libucosii_bsp.a(os_dbg.o)
 .debug_frame   0x000016a8      0x180 ../Ascensor_bsp/\libucosii_bsp.a(os_flag.o)
 .debug_frame   0x00001828       0xf0 ../Ascensor_bsp/\libucosii_bsp.a(os_mbox.o)
 .debug_frame   0x00001918       0xd4 ../Ascensor_bsp/\libucosii_bsp.a(os_mem.o)
 .debug_frame   0x000019ec      0x144 ../Ascensor_bsp/\libucosii_bsp.a(os_q.o)
 .debug_frame   0x00001b30       0xf0 ../Ascensor_bsp/\libucosii_bsp.a(os_sem.o)
 .debug_frame   0x00001c20      0x160 ../Ascensor_bsp/\libucosii_bsp.a(os_task.o)
 .debug_frame   0x00001d80       0xa0 ../Ascensor_bsp/\libucosii_bsp.a(os_time.o)
 .debug_frame   0x00001e20       0x64 ../Ascensor_bsp/\libucosii_bsp.a(alt_sys_init.o)
 .debug_frame   0x00001e84       0x80 ../Ascensor_bsp/\libucosii_bsp.a(altera_avalon_jtag_uart_fd.o)
 .debug_frame   0x00001f04       0x80 ../Ascensor_bsp/\libucosii_bsp.a(altera_avalon_jtag_uart_init.o)
 .debug_frame   0x00001f84       0x2c ../Ascensor_bsp/\libucosii_bsp.a(altera_avalon_jtag_uart_ioctl.o)
 .debug_frame   0x00001fb0       0x2c ../Ascensor_bsp/\libucosii_bsp.a(altera_avalon_jtag_uart_read.o)
 .debug_frame   0x00001fdc       0x2c ../Ascensor_bsp/\libucosii_bsp.a(altera_avalon_jtag_uart_write.o)
 .debug_frame   0x00002008       0x48 ../Ascensor_bsp/\libucosii_bsp.a(altera_avalon_timer_sc.o)
 .debug_frame   0x00002050      0x17c ../Ascensor_bsp/\libucosii_bsp.a(altera_up_avalon_character_lcd.o)
 .debug_frame   0x000021cc       0x2c ../Ascensor_bsp/\libucosii_bsp.a(alt_alarm_start.o)
 .debug_frame   0x000021f8       0x2c ../Ascensor_bsp/\libucosii_bsp.a(alt_dcache_flush_all.o)
 .debug_frame   0x00002224       0x48 ../Ascensor_bsp/\libucosii_bsp.a(alt_dev_llist_insert.o)
 .debug_frame   0x0000226c       0x2c ../Ascensor_bsp/\libucosii_bsp.a(alt_do_ctors.o)
 .debug_frame   0x00002298       0x2c ../Ascensor_bsp/\libucosii_bsp.a(alt_do_dtors.o)
 .debug_frame   0x000022c4       0x2c ../Ascensor_bsp/\libucosii_bsp.a(alt_find_dev.o)
 .debug_frame   0x000022f0       0x2c ../Ascensor_bsp/\libucosii_bsp.a(alt_icache_flush_all.o)
 .debug_frame   0x0000231c       0x48 ../Ascensor_bsp/\libucosii_bsp.a(alt_io_redirect.o)
 .debug_frame   0x00002364       0x2c ../Ascensor_bsp/\libucosii_bsp.a(alt_irq_handler.o)
 .debug_frame   0x00002390       0x64 ../Ascensor_bsp/\libucosii_bsp.a(alt_open.o)
 .debug_frame   0x000023f4       0x48 ../Ascensor_bsp/\libucosii_bsp.a(alt_tick.o)
 .debug_frame   0x0000243c       0x2c ../Ascensor_bsp/\libucosii_bsp.a(altera_nios2_qsys_irq.o)
 .debug_frame   0x00002468      0x128 ../Ascensor_bsp/\libucosii_bsp.a(os_cpu_c.o)
 .debug_frame   0x00002590       0x2c ../Ascensor_bsp/\libucosii_bsp.a(alt_find_file.o)
 .debug_frame   0x000025bc       0x2c ../Ascensor_bsp/\libucosii_bsp.a(alt_get_fd.o)
 .debug_frame   0x000025e8       0x2c ../Ascensor_bsp/\libucosii_bsp.a(alt_icache_flush.o)
 .debug_frame   0x00002614       0x20 c:/altera/13.0sp1/nios2eds/bin/gnu/h-i686-mingw32/bin/../lib/gcc/nios2-elf/4.1.2/../../../../nios2-elf/lib\libc.a(lib_a-atexit.o)
 .debug_frame   0x00002634       0x28 c:/altera/13.0sp1/nios2eds/bin/gnu/h-i686-mingw32/bin/../lib/gcc/nios2-elf/4.1.2/../../../../nios2-elf/lib\libc.a(lib_a-exit.o)
 .debug_frame   0x0000265c       0x20 c:/altera/13.0sp1/nios2eds/bin/gnu/h-i686-mingw32/bin/../lib/gcc/nios2-elf/4.1.2/../../../../nios2-elf/lib\libc.a(lib_a-memcmp.o)
 .debug_frame   0x0000267c       0x34 c:/altera/13.0sp1/nios2eds/bin/gnu/h-i686-mingw32/bin/../lib/gcc/nios2-elf/4.1.2/../../../../nios2-elf/lib\libc.a(lib_a-__atexit.o)
 .debug_frame   0x000026b0       0x4c c:/altera/13.0sp1/nios2eds/bin/gnu/h-i686-mingw32/bin/../lib/gcc/nios2-elf/4.1.2/../../../../nios2-elf/lib\libc.a(lib_a-__call_atexit.o)
 .debug_frame   0x000026fc       0x30 c:/altera/13.0sp1/nios2eds/bin/gnu/h-i686-mingw32/bin/../lib/gcc/nios2-elf/4.1.2\libgcc.a(_fixunsdfsi.o)
 .debug_frame   0x0000272c       0x48 ../Ascensor_bsp/\libucosii_bsp.a(alt_exit.o)

.debug_str      0x00000000     0x24d8
 *(.debug_str)
 .debug_str     0x00000000       0x65 obj/default/hello_ucosii.o
 .debug_str     0x00000065      0x49b c:/altera/13.0sp1/nios2eds/bin/gnu/h-i686-mingw32/bin/../lib/gcc/nios2-elf/4.1.2/../../../../nios2-elf/lib\libc.a(lib_a-printf.o)
                                0x523 (size before relaxing)
 .debug_str     0x00000500       0x81 c:/altera/13.0sp1/nios2eds/bin/gnu/h-i686-mingw32/bin/../lib/gcc/nios2-elf/4.1.2/../../../../nios2-elf/lib\libc.a(lib_a-puts.o)
                                0x549 (size before relaxing)
 .debug_str     0x00000581       0x4e c:/altera/13.0sp1/nios2eds/bin/gnu/h-i686-mingw32/bin/../lib/gcc/nios2-elf/4.1.2/../../../../nios2-elf/lib\libc.a(lib_a-sprintf.o)
                                0x52b (size before relaxing)
 .debug_str     0x000005cf       0xdb c:/altera/13.0sp1/nios2eds/bin/gnu/h-i686-mingw32/bin/../lib/gcc/nios2-elf/4.1.2/../../../../nios2-elf/lib\libc.a(lib_a-strlen.o)
                                0x17d (size before relaxing)
 .debug_str     0x000006aa      0x185 c:/altera/13.0sp1/nios2eds/bin/gnu/h-i686-mingw32/bin/../lib/gcc/nios2-elf/4.1.2/../../../../nios2-elf/lib\libc.a(lib_a-vfprintf.o)
                                0x6f8 (size before relaxing)
 .debug_str     0x0000082f       0x46 c:/altera/13.0sp1/nios2eds/bin/gnu/h-i686-mingw32/bin/../lib/gcc/nios2-elf/4.1.2/../../../../nios2-elf/lib\libc.a(lib_a-wsetup.o)
                                0x50c (size before relaxing)
 .debug_str     0x00000875      0x18e c:/altera/13.0sp1/nios2eds/bin/gnu/h-i686-mingw32/bin/../lib/gcc/nios2-elf/4.1.2/../../../../nios2-elf/lib\libc.a(lib_a-dtoa.o)
                                0x601 (size before relaxing)
 .debug_str     0x00000a03       0x65 c:/altera/13.0sp1/nios2eds/bin/gnu/h-i686-mingw32/bin/../lib/gcc/nios2-elf/4.1.2/../../../../nios2-elf/lib\libc.a(lib_a-fflush.o)
                                0x532 (size before relaxing)
 .debug_str     0x00000a68      0x102 c:/altera/13.0sp1/nios2eds/bin/gnu/h-i686-mingw32/bin/../lib/gcc/nios2-elf/4.1.2/../../../../nios2-elf/lib\libc.a(lib_a-findfp.o)
                                0x5f4 (size before relaxing)
 .debug_str     0x00000b6a      0x15b c:/altera/13.0sp1/nios2eds/bin/gnu/h-i686-mingw32/bin/../lib/gcc/nios2-elf/4.1.2/../../../../nios2-elf/lib\libc.a(lib_a-freer.o)
                                0x643 (size before relaxing)
 .debug_str     0x00000cc5       0x66 c:/altera/13.0sp1/nios2eds/bin/gnu/h-i686-mingw32/bin/../lib/gcc/nios2-elf/4.1.2/../../../../nios2-elf/lib\libc.a(lib_a-fvwrite.o)
                                0x563 (size before relaxing)
 .debug_str     0x00000d2b       0x5e c:/altera/13.0sp1/nios2eds/bin/gnu/h-i686-mingw32/bin/../lib/gcc/nios2-elf/4.1.2/../../../../nios2-elf/lib\libc.a(lib_a-fwalk.o)
                                0x535 (size before relaxing)
 .debug_str     0x00000d89       0xd1 c:/altera/13.0sp1/nios2eds/bin/gnu/h-i686-mingw32/bin/../lib/gcc/nios2-elf/4.1.2/../../../../nios2-elf/lib\libc.a(lib_a-impure.o)
                                0x51a (size before relaxing)
 .debug_str     0x00000e5a      0x225 c:/altera/13.0sp1/nios2eds/bin/gnu/h-i686-mingw32/bin/../lib/gcc/nios2-elf/4.1.2/../../../../nios2-elf/lib\libc.a(lib_a-locale.o)
                                0x6a9 (size before relaxing)
 .debug_str     0x0000107f      0x123 c:/altera/13.0sp1/nios2eds/bin/gnu/h-i686-mingw32/bin/../lib/gcc/nios2-elf/4.1.2/../../../../nios2-elf/lib\libc.a(lib_a-makebuf.o)
                                0x606 (size before relaxing)
 .debug_str     0x000011a2       0xef c:/altera/13.0sp1/nios2eds/bin/gnu/h-i686-mingw32/bin/../lib/gcc/nios2-elf/4.1.2/../../../../nios2-elf/lib\libc.a(lib_a-mallocr.o)
                                0x6f1 (size before relaxing)
 .debug_str     0x00001291       0x5c c:/altera/13.0sp1/nios2eds/bin/gnu/h-i686-mingw32/bin/../lib/gcc/nios2-elf/4.1.2/../../../../nios2-elf/lib\libc.a(lib_a-memchr.o)
                                0x18b (size before relaxing)
 .debug_str     0x000012ed       0x69 c:/altera/13.0sp1/nios2eds/bin/gnu/h-i686-mingw32/bin/../lib/gcc/nios2-elf/4.1.2/../../../../nios2-elf/lib\libc.a(lib_a-memcpy.o)
                                0x128 (size before relaxing)
 .debug_str     0x00001356       0x4d c:/altera/13.0sp1/nios2eds/bin/gnu/h-i686-mingw32/bin/../lib/gcc/nios2-elf/4.1.2/../../../../nios2-elf/lib\libc.a(lib_a-memmove.o)
                                0x19d (size before relaxing)
 .debug_str     0x000013a3       0x42 c:/altera/13.0sp1/nios2eds/bin/gnu/h-i686-mingw32/bin/../lib/gcc/nios2-elf/4.1.2/../../../../nios2-elf/lib\libc.a(lib_a-memset.o)
                                0x17e (size before relaxing)
 .debug_str     0x000013e5       0xf8 c:/altera/13.0sp1/nios2eds/bin/gnu/h-i686-mingw32/bin/../lib/gcc/nios2-elf/4.1.2/../../../../nios2-elf/lib\libc.a(lib_a-mprec.o)
                                0x60e (size before relaxing)
 .debug_str     0x000014dd       0x59 c:/altera/13.0sp1/nios2eds/bin/gnu/h-i686-mingw32/bin/../lib/gcc/nios2-elf/4.1.2/../../../../nios2-elf/lib\libc.a(lib_a-reallocr.o)
                                0x5c3 (size before relaxing)
 .debug_str     0x00001536       0xdc c:/altera/13.0sp1/nios2eds/bin/gnu/h-i686-mingw32/bin/../lib/gcc/nios2-elf/4.1.2/../../../../nios2-elf/lib\libc.a(lib_a-s_isinfd.o)
                                0x18a (size before relaxing)
 .debug_str     0x00001612       0x46 c:/altera/13.0sp1/nios2eds/bin/gnu/h-i686-mingw32/bin/../lib/gcc/nios2-elf/4.1.2/../../../../nios2-elf/lib\libc.a(lib_a-s_isnand.o)
                                0x18a (size before relaxing)
 .debug_str     0x00001658       0x50 c:/altera/13.0sp1/nios2eds/bin/gnu/h-i686-mingw32/bin/../lib/gcc/nios2-elf/4.1.2/../../../../nios2-elf/lib\libc.a(lib_a-sbrkr.o)
                                0x50b (size before relaxing)
 .debug_str     0x000016a8       0x62 c:/altera/13.0sp1/nios2eds/bin/gnu/h-i686-mingw32/bin/../lib/gcc/nios2-elf/4.1.2/../../../../nios2-elf/lib\libc.a(lib_a-stdio.o)
                                0x531 (size before relaxing)
 .debug_str     0x0000170a       0x42 c:/altera/13.0sp1/nios2eds/bin/gnu/h-i686-mingw32/bin/../lib/gcc/nios2-elf/4.1.2/../../../../nios2-elf/lib\libc.a(lib_a-strcmp.o)
                                0x163 (size before relaxing)
 .debug_str     0x0000174c       0x4c c:/altera/13.0sp1/nios2eds/bin/gnu/h-i686-mingw32/bin/../lib/gcc/nios2-elf/4.1.2/../../../../nios2-elf/lib\libc.a(lib_a-writer.o)
                                0x50e (size before relaxing)
 .debug_str     0x00001798       0x19 c:/altera/13.0sp1/nios2eds/bin/gnu/h-i686-mingw32/bin/../lib/gcc/nios2-elf/4.1.2/../../../../nios2-elf/lib\libc.a(lib_a-callocr.o)
                                0x542 (size before relaxing)
 .debug_str     0x000017b1       0x43 c:/altera/13.0sp1/nios2eds/bin/gnu/h-i686-mingw32/bin/../lib/gcc/nios2-elf/4.1.2/../../../../nios2-elf/lib\libc.a(lib_a-closer.o)
                                0x4fe (size before relaxing)
 .debug_str     0x000017f4       0x4b c:/altera/13.0sp1/nios2eds/bin/gnu/h-i686-mingw32/bin/../lib/gcc/nios2-elf/4.1.2/../../../../nios2-elf/lib\libc.a(lib_a-fclose.o)
                                0x516 (size before relaxing)
 .debug_str     0x0000183f       0x49 c:/altera/13.0sp1/nios2eds/bin/gnu/h-i686-mingw32/bin/../lib/gcc/nios2-elf/4.1.2/../../../../nios2-elf/lib\libc.a(lib_a-fstatr.o)
                                0x5f1 (size before relaxing)
 .debug_str     0x00001888       0x3d c:/altera/13.0sp1/nios2eds/bin/gnu/h-i686-mingw32/bin/../lib/gcc/nios2-elf/4.1.2/../../../../nios2-elf/lib\libc.a(lib_a-int_errno.o)
                                0x163 (size before relaxing)
 .debug_str     0x000018c5       0x45 c:/altera/13.0sp1/nios2eds/bin/gnu/h-i686-mingw32/bin/../lib/gcc/nios2-elf/4.1.2/../../../../nios2-elf/lib\libc.a(lib_a-isattyr.o)
                                0x500 (size before relaxing)
 .debug_str     0x0000190a       0x43 c:/altera/13.0sp1/nios2eds/bin/gnu/h-i686-mingw32/bin/../lib/gcc/nios2-elf/4.1.2/../../../../nios2-elf/lib\libc.a(lib_a-lseekr.o)
                                0x50c (size before relaxing)
 .debug_str     0x0000194d       0x41 c:/altera/13.0sp1/nios2eds/bin/gnu/h-i686-mingw32/bin/../lib/gcc/nios2-elf/4.1.2/../../../../nios2-elf/lib\libc.a(lib_a-readr.o)
                                0x50c (size before relaxing)
 .debug_str     0x0000198e      0x147 c:/altera/13.0sp1/nios2eds/bin/gnu/h-i686-mingw32/bin/../lib/gcc/nios2-elf/4.1.2\libgcc.a(_udivdi3.o)
                                0x1f7 (size before relaxing)
 .debug_str     0x00001ad5        0xa c:/altera/13.0sp1/nios2eds/bin/gnu/h-i686-mingw32/bin/../lib/gcc/nios2-elf/4.1.2\libgcc.a(_umoddi3.o)
                                0x1f7 (size before relaxing)
 .debug_str     0x00001adf      0x137 c:/altera/13.0sp1/nios2eds/bin/gnu/h-i686-mingw32/bin/../lib/gcc/nios2-elf/4.1.2\libgcc.a(_addsub_df.o)
                                0x26f (size before relaxing)
 .debug_str     0x00001c16       0x40 c:/altera/13.0sp1/nios2eds/bin/gnu/h-i686-mingw32/bin/../lib/gcc/nios2-elf/4.1.2\libgcc.a(_mul_df.o)
                                0x241 (size before relaxing)
 .debug_str     0x00001c56       0x35 c:/altera/13.0sp1/nios2eds/bin/gnu/h-i686-mingw32/bin/../lib/gcc/nios2-elf/4.1.2\libgcc.a(_div_df.o)
                                0x231 (size before relaxing)
 .debug_str     0x00001c8b        0x8 c:/altera/13.0sp1/nios2eds/bin/gnu/h-i686-mingw32/bin/../lib/gcc/nios2-elf/4.1.2\libgcc.a(_eq_df.o)
                                0x1fe (size before relaxing)
 .debug_str     0x00001c93        0x8 c:/altera/13.0sp1/nios2eds/bin/gnu/h-i686-mingw32/bin/../lib/gcc/nios2-elf/4.1.2\libgcc.a(_ne_df.o)
                                0x1fe (size before relaxing)
 .debug_str     0x00001c9b        0x8 c:/altera/13.0sp1/nios2eds/bin/gnu/h-i686-mingw32/bin/../lib/gcc/nios2-elf/4.1.2\libgcc.a(_gt_df.o)
                                0x1fe (size before relaxing)
 .debug_str     0x00001ca3        0x8 c:/altera/13.0sp1/nios2eds/bin/gnu/h-i686-mingw32/bin/../lib/gcc/nios2-elf/4.1.2\libgcc.a(_ge_df.o)
                                0x1fe (size before relaxing)
 .debug_str     0x00001cab        0x8 c:/altera/13.0sp1/nios2eds/bin/gnu/h-i686-mingw32/bin/../lib/gcc/nios2-elf/4.1.2\libgcc.a(_lt_df.o)
                                0x1fe (size before relaxing)
 .debug_str     0x00001cb3       0x18 c:/altera/13.0sp1/nios2eds/bin/gnu/h-i686-mingw32/bin/../lib/gcc/nios2-elf/4.1.2\libgcc.a(_si_to_df.o)
                                0x1de (size before relaxing)
 .debug_str     0x00001ccb        0xa c:/altera/13.0sp1/nios2eds/bin/gnu/h-i686-mingw32/bin/../lib/gcc/nios2-elf/4.1.2\libgcc.a(_df_to_si.o)
                                0x207 (size before relaxing)
 .debug_str     0x00000000      0x1a3 c:/altera/13.0sp1/nios2eds/bin/gnu/h-i686-mingw32/bin/../lib/gcc/nios2-elf/4.1.2\libgcc.a(_thenan_df.o)
 .debug_str     0x00001cd5       0x14 c:/altera/13.0sp1/nios2eds/bin/gnu/h-i686-mingw32/bin/../lib/gcc/nios2-elf/4.1.2\libgcc.a(_usi_to_df.o)
                                0x1da (size before relaxing)
 .debug_str     0x00001ce9       0x76 c:/altera/13.0sp1/nios2eds/bin/gnu/h-i686-mingw32/bin/../lib/gcc/nios2-elf/4.1.2\libgcc.a(lib2-divmod.o)
                                0x1b4 (size before relaxing)
 .debug_str     0x00001d5f        0x9 c:/altera/13.0sp1/nios2eds/bin/gnu/h-i686-mingw32/bin/../lib/gcc/nios2-elf/4.1.2\libgcc.a(_muldi3.o)
                                0x1ac (size before relaxing)
 .debug_str     0x00000000      0x161 c:/altera/13.0sp1/nios2eds/bin/gnu/h-i686-mingw32/bin/../lib/gcc/nios2-elf/4.1.2\libgcc.a(_clz.o)
 .debug_str     0x00001d68        0x9 c:/altera/13.0sp1/nios2eds/bin/gnu/h-i686-mingw32/bin/../lib/gcc/nios2-elf/4.1.2\libgcc.a(_clzsi2.o)
                                0x17e (size before relaxing)
 .debug_str     0x00001d71       0x10 c:/altera/13.0sp1/nios2eds/bin/gnu/h-i686-mingw32/bin/../lib/gcc/nios2-elf/4.1.2\libgcc.a(_pack_df.o)
                                0x206 (size before relaxing)
 .debug_str     0x00001d81        0xb c:/altera/13.0sp1/nios2eds/bin/gnu/h-i686-mingw32/bin/../lib/gcc/nios2-elf/4.1.2\libgcc.a(_unpack_df.o)
                                0x1e8 (size before relaxing)
 .debug_str     0x00001d8c       0x10 c:/altera/13.0sp1/nios2eds/bin/gnu/h-i686-mingw32/bin/../lib/gcc/nios2-elf/4.1.2\libgcc.a(_fpcmp_parts_df.o)
                                0x1c6 (size before relaxing)
 .debug_str     0x00001d9c       0x12 ../Ascensor_bsp/\libucosii_bsp.a(alt_close.o)
 .debug_str     0x00001dae       0x12 ../Ascensor_bsp/\libucosii_bsp.a(alt_dev.o)
 .debug_str     0x00001dc0       0x12 ../Ascensor_bsp/\libucosii_bsp.a(alt_errno.o)
 .debug_str     0x00001dd2       0x12 ../Ascensor_bsp/\libucosii_bsp.a(alt_fstat.o)
 .debug_str     0x00001de4       0x21 ../Ascensor_bsp/\libucosii_bsp.a(alt_irq_register.o)
 .debug_str     0x00001e05       0x12 ../Ascensor_bsp/\libucosii_bsp.a(alt_isatty.o)
 .debug_str     0x00001e17       0x12 ../Ascensor_bsp/\libucosii_bsp.a(alt_load.o)
 .debug_str     0x00001e29       0x12 ../Ascensor_bsp/\libucosii_bsp.a(alt_lseek.o)
 .debug_str     0x00001e3b       0x12 ../Ascensor_bsp/\libucosii_bsp.a(alt_main.o)
 .debug_str     0x00001e4d       0x12 ../Ascensor_bsp/\libucosii_bsp.a(alt_read.o)
 .debug_str     0x00001e5f       0x12 ../Ascensor_bsp/\libucosii_bsp.a(alt_release_fd.o)
 .debug_str     0x00001e71       0x1a ../Ascensor_bsp/\libucosii_bsp.a(alt_sbrk.o)
 .debug_str     0x00001e8b       0x12 ../Ascensor_bsp/\libucosii_bsp.a(alt_write.o)
 .debug_str     0x00001e9d       0x36 ../Ascensor_bsp/\libucosii_bsp.a(alt_env_lock.o)
 .debug_str     0x00001ed3       0x36 ../Ascensor_bsp/\libucosii_bsp.a(alt_malloc_lock.o)
 .debug_str     0x00001f09       0x46 ../Ascensor_bsp/\libucosii_bsp.a(os_core.o)
 .debug_str     0x00001f4f       0x2b ../Ascensor_bsp/\libucosii_bsp.a(os_dbg.o)
 .debug_str     0x00001f7a       0x4e ../Ascensor_bsp/\libucosii_bsp.a(os_flag.o)
 .debug_str     0x00001fc8       0x36 ../Ascensor_bsp/\libucosii_bsp.a(os_mbox.o)
 .debug_str     0x00001ffe       0x2c ../Ascensor_bsp/\libucosii_bsp.a(os_mem.o)
 .debug_str     0x0000202a       0x36 ../Ascensor_bsp/\libucosii_bsp.a(os_q.o)
 .debug_str     0x00002060       0x36 ../Ascensor_bsp/\libucosii_bsp.a(os_sem.o)
 .debug_str     0x00002096       0x23 ../Ascensor_bsp/\libucosii_bsp.a(os_task.o)
 .debug_str     0x000020b9       0x1f ../Ascensor_bsp/\libucosii_bsp.a(os_time.o)
 .debug_str     0x000020d8       0x44 ../Ascensor_bsp/\libucosii_bsp.a(alt_sys_init.o)
 .debug_str     0x0000211c       0x12 ../Ascensor_bsp/\libucosii_bsp.a(altera_avalon_jtag_uart_fd.o)
 .debug_str     0x0000212e       0x1a ../Ascensor_bsp/\libucosii_bsp.a(altera_avalon_jtag_uart_init.o)
 .debug_str     0x00002148       0x12 ../Ascensor_bsp/\libucosii_bsp.a(altera_avalon_jtag_uart_ioctl.o)
 .debug_str     0x0000215a       0x22 ../Ascensor_bsp/\libucosii_bsp.a(altera_avalon_jtag_uart_read.o)
 .debug_str     0x0000217c       0x22 ../Ascensor_bsp/\libucosii_bsp.a(altera_avalon_jtag_uart_write.o)
 .debug_str     0x0000219e       0x12 ../Ascensor_bsp/\libucosii_bsp.a(altera_avalon_timer_sc.o)
 .debug_str     0x000021b0       0x55 ../Ascensor_bsp/\libucosii_bsp.a(altera_up_avalon_character_lcd.o)
 .debug_str     0x00002205       0x23 ../Ascensor_bsp/\libucosii_bsp.a(alt_alarm_start.o)
 .debug_str     0x00002228       0x12 ../Ascensor_bsp/\libucosii_bsp.a(alt_dcache_flush_all.o)
 .debug_str     0x0000223a       0x12 ../Ascensor_bsp/\libucosii_bsp.a(alt_dev_llist_insert.o)
 .debug_str     0x0000224c       0x12 ../Ascensor_bsp/\libucosii_bsp.a(alt_find_dev.o)
 .debug_str     0x0000225e       0x12 ../Ascensor_bsp/\libucosii_bsp.a(alt_icache_flush_all.o)
 .debug_str     0x00002270       0x12 ../Ascensor_bsp/\libucosii_bsp.a(alt_io_redirect.o)
 .debug_str     0x00002282       0x12 ../Ascensor_bsp/\libucosii_bsp.a(alt_irq_handler.o)
 .debug_str     0x00002294       0x12 ../Ascensor_bsp/\libucosii_bsp.a(alt_open.o)
 .debug_str     0x000022a6       0x1a ../Ascensor_bsp/\libucosii_bsp.a(alt_tick.o)
 .debug_str     0x000022c0       0x12 ../Ascensor_bsp/\libucosii_bsp.a(altera_nios2_qsys_irq.o)
 .debug_str     0x000022d2       0x20 ../Ascensor_bsp/\libucosii_bsp.a(os_cpu_c.o)
 .debug_str     0x000022f2       0x12 ../Ascensor_bsp/\libucosii_bsp.a(alt_find_file.o)
 .debug_str     0x00002304       0x12 ../Ascensor_bsp/\libucosii_bsp.a(alt_get_fd.o)
 .debug_str     0x00002316       0x12 ../Ascensor_bsp/\libucosii_bsp.a(alt_icache_flush.o)
 .debug_str     0x00002328       0x3b c:/altera/13.0sp1/nios2eds/bin/gnu/h-i686-mingw32/bin/../lib/gcc/nios2-elf/4.1.2/../../../../nios2-elf/lib\libc.a(lib_a-atexit.o)
                                0x1bf (size before relaxing)
 .debug_str     0x00002363       0x3e c:/altera/13.0sp1/nios2eds/bin/gnu/h-i686-mingw32/bin/../lib/gcc/nios2-elf/4.1.2/../../../../nios2-elf/lib\libc.a(lib_a-exit.o)
                                0x50c (size before relaxing)
 .debug_str     0x000023a1       0x42 c:/altera/13.0sp1/nios2eds/bin/gnu/h-i686-mingw32/bin/../lib/gcc/nios2-elf/4.1.2/../../../../nios2-elf/lib\libc.a(lib_a-memcmp.o)
                                0x16a (size before relaxing)
 .debug_str     0x000023e3       0x51 c:/altera/13.0sp1/nios2eds/bin/gnu/h-i686-mingw32/bin/../lib/gcc/nios2-elf/4.1.2/../../../../nios2-elf/lib\libc.a(lib_a-__atexit.o)
                                0x524 (size before relaxing)
 .debug_str     0x00002434       0x7b c:/altera/13.0sp1/nios2eds/bin/gnu/h-i686-mingw32/bin/../lib/gcc/nios2-elf/4.1.2/../../../../nios2-elf/lib\libc.a(lib_a-__call_atexit.o)
                                0x54e (size before relaxing)
 .debug_str     0x000024af        0xd c:/altera/13.0sp1/nios2eds/bin/gnu/h-i686-mingw32/bin/../lib/gcc/nios2-elf/4.1.2\libgcc.a(_fixunsdfsi.o)
                                0x16b (size before relaxing)
 .debug_str     0x000024bc       0x1c ../Ascensor_bsp/\libucosii_bsp.a(alt_exit.o)

.debug_loc      0x00000000     0xd46a
 *(.debug_loc)
 .debug_loc     0x00000000      0x1af obj/default/hello_ucosii.o
 .debug_loc     0x000001af       0xcb c:/altera/13.0sp1/nios2eds/bin/gnu/h-i686-mingw32/bin/../lib/gcc/nios2-elf/4.1.2/../../../../nios2-elf/lib\libc.a(lib_a-printf.o)
 .debug_loc     0x0000027a       0xa2 c:/altera/13.0sp1/nios2eds/bin/gnu/h-i686-mingw32/bin/../lib/gcc/nios2-elf/4.1.2/../../../../nios2-elf/lib\libc.a(lib_a-puts.o)
 .debug_loc     0x0000031c       0xc0 c:/altera/13.0sp1/nios2eds/bin/gnu/h-i686-mingw32/bin/../lib/gcc/nios2-elf/4.1.2/../../../../nios2-elf/lib\libc.a(lib_a-sprintf.o)
 .debug_loc     0x000003dc       0x3c c:/altera/13.0sp1/nios2eds/bin/gnu/h-i686-mingw32/bin/../lib/gcc/nios2-elf/4.1.2/../../../../nios2-elf/lib\libc.a(lib_a-strlen.o)
 .debug_loc     0x00000418     0x1e0d c:/altera/13.0sp1/nios2eds/bin/gnu/h-i686-mingw32/bin/../lib/gcc/nios2-elf/4.1.2/../../../../nios2-elf/lib\libc.a(lib_a-vfprintf.o)
 .debug_loc     0x00002225       0x7c c:/altera/13.0sp1/nios2eds/bin/gnu/h-i686-mingw32/bin/../lib/gcc/nios2-elf/4.1.2/../../../../nios2-elf/lib\libc.a(lib_a-wsetup.o)
 .debug_loc     0x000022a1     0x1dfa c:/altera/13.0sp1/nios2eds/bin/gnu/h-i686-mingw32/bin/../lib/gcc/nios2-elf/4.1.2/../../../../nios2-elf/lib\libc.a(lib_a-dtoa.o)
 .debug_loc     0x0000409b      0x1f6 c:/altera/13.0sp1/nios2eds/bin/gnu/h-i686-mingw32/bin/../lib/gcc/nios2-elf/4.1.2/../../../../nios2-elf/lib\libc.a(lib_a-fflush.o)
 .debug_loc     0x00004291      0x19f c:/altera/13.0sp1/nios2eds/bin/gnu/h-i686-mingw32/bin/../lib/gcc/nios2-elf/4.1.2/../../../../nios2-elf/lib\libc.a(lib_a-findfp.o)
 .debug_loc     0x00004430      0x4a7 c:/altera/13.0sp1/nios2eds/bin/gnu/h-i686-mingw32/bin/../lib/gcc/nios2-elf/4.1.2/../../../../nios2-elf/lib\libc.a(lib_a-freer.o)
 .debug_loc     0x000048d7      0x4e4 c:/altera/13.0sp1/nios2eds/bin/gnu/h-i686-mingw32/bin/../lib/gcc/nios2-elf/4.1.2/../../../../nios2-elf/lib\libc.a(lib_a-fvwrite.o)
 .debug_loc     0x00004dbb      0x1d2 c:/altera/13.0sp1/nios2eds/bin/gnu/h-i686-mingw32/bin/../lib/gcc/nios2-elf/4.1.2/../../../../nios2-elf/lib\libc.a(lib_a-fwalk.o)
 .debug_loc     0x00004f8d       0xe1 c:/altera/13.0sp1/nios2eds/bin/gnu/h-i686-mingw32/bin/../lib/gcc/nios2-elf/4.1.2/../../../../nios2-elf/lib\libc.a(lib_a-locale.o)
 .debug_loc     0x0000506e      0x11c c:/altera/13.0sp1/nios2eds/bin/gnu/h-i686-mingw32/bin/../lib/gcc/nios2-elf/4.1.2/../../../../nios2-elf/lib\libc.a(lib_a-makebuf.o)
 .debug_loc     0x0000518a      0xaeb c:/altera/13.0sp1/nios2eds/bin/gnu/h-i686-mingw32/bin/../lib/gcc/nios2-elf/4.1.2/../../../../nios2-elf/lib\libc.a(lib_a-mallocr.o)
 .debug_loc     0x00005c75      0x106 c:/altera/13.0sp1/nios2eds/bin/gnu/h-i686-mingw32/bin/../lib/gcc/nios2-elf/4.1.2/../../../../nios2-elf/lib\libc.a(lib_a-memchr.o)
 .debug_loc     0x00005d7b       0xca c:/altera/13.0sp1/nios2eds/bin/gnu/h-i686-mingw32/bin/../lib/gcc/nios2-elf/4.1.2/../../../../nios2-elf/lib\libc.a(lib_a-memcpy.o)
 .debug_loc     0x00005e45      0x117 c:/altera/13.0sp1/nios2eds/bin/gnu/h-i686-mingw32/bin/../lib/gcc/nios2-elf/4.1.2/../../../../nios2-elf/lib\libc.a(lib_a-memmove.o)
 .debug_loc     0x00005f5c       0xa1 c:/altera/13.0sp1/nios2eds/bin/gnu/h-i686-mingw32/bin/../lib/gcc/nios2-elf/4.1.2/../../../../nios2-elf/lib\libc.a(lib_a-memset.o)
 .debug_loc     0x00005ffd     0x14d6 c:/altera/13.0sp1/nios2eds/bin/gnu/h-i686-mingw32/bin/../lib/gcc/nios2-elf/4.1.2/../../../../nios2-elf/lib\libc.a(lib_a-mprec.o)
 .debug_loc     0x000074d3      0x8c0 c:/altera/13.0sp1/nios2eds/bin/gnu/h-i686-mingw32/bin/../lib/gcc/nios2-elf/4.1.2/../../../../nios2-elf/lib\libc.a(lib_a-reallocr.o)
 .debug_loc     0x00007d93       0x36 c:/altera/13.0sp1/nios2eds/bin/gnu/h-i686-mingw32/bin/../lib/gcc/nios2-elf/4.1.2/../../../../nios2-elf/lib\libc.a(lib_a-s_isinfd.o)
 .debug_loc     0x00007dc9       0x18 c:/altera/13.0sp1/nios2eds/bin/gnu/h-i686-mingw32/bin/../lib/gcc/nios2-elf/4.1.2/../../../../nios2-elf/lib\libc.a(lib_a-s_isnand.o)
 .debug_loc     0x00007de1       0x5b c:/altera/13.0sp1/nios2eds/bin/gnu/h-i686-mingw32/bin/../lib/gcc/nios2-elf/4.1.2/../../../../nios2-elf/lib\libc.a(lib_a-sbrkr.o)
 .debug_loc     0x00007e3c      0x21f c:/altera/13.0sp1/nios2eds/bin/gnu/h-i686-mingw32/bin/../lib/gcc/nios2-elf/4.1.2/../../../../nios2-elf/lib\libc.a(lib_a-stdio.o)
 .debug_loc     0x0000805b       0x65 c:/altera/13.0sp1/nios2eds/bin/gnu/h-i686-mingw32/bin/../lib/gcc/nios2-elf/4.1.2/../../../../nios2-elf/lib\libc.a(lib_a-strcmp.o)
 .debug_loc     0x000080c0       0x97 c:/altera/13.0sp1/nios2eds/bin/gnu/h-i686-mingw32/bin/../lib/gcc/nios2-elf/4.1.2/../../../../nios2-elf/lib\libc.a(lib_a-writer.o)
 .debug_loc     0x00008157       0xe9 c:/altera/13.0sp1/nios2eds/bin/gnu/h-i686-mingw32/bin/../lib/gcc/nios2-elf/4.1.2/../../../../nios2-elf/lib\libc.a(lib_a-callocr.o)
 .debug_loc     0x00008240       0x5b c:/altera/13.0sp1/nios2eds/bin/gnu/h-i686-mingw32/bin/../lib/gcc/nios2-elf/4.1.2/../../../../nios2-elf/lib\libc.a(lib_a-closer.o)
 .debug_loc     0x0000829b       0xe4 c:/altera/13.0sp1/nios2eds/bin/gnu/h-i686-mingw32/bin/../lib/gcc/nios2-elf/4.1.2/../../../../nios2-elf/lib\libc.a(lib_a-fclose.o)
 .debug_loc     0x0000837f       0x79 c:/altera/13.0sp1/nios2eds/bin/gnu/h-i686-mingw32/bin/../lib/gcc/nios2-elf/4.1.2/../../../../nios2-elf/lib\libc.a(lib_a-fstatr.o)
 .debug_loc     0x000083f8       0x5b c:/altera/13.0sp1/nios2eds/bin/gnu/h-i686-mingw32/bin/../lib/gcc/nios2-elf/4.1.2/../../../../nios2-elf/lib\libc.a(lib_a-isattyr.o)
 .debug_loc     0x00008453       0x97 c:/altera/13.0sp1/nios2eds/bin/gnu/h-i686-mingw32/bin/../lib/gcc/nios2-elf/4.1.2/../../../../nios2-elf/lib\libc.a(lib_a-lseekr.o)
 .debug_loc     0x000084ea       0x97 c:/altera/13.0sp1/nios2eds/bin/gnu/h-i686-mingw32/bin/../lib/gcc/nios2-elf/4.1.2/../../../../nios2-elf/lib\libc.a(lib_a-readr.o)
 .debug_loc     0x00008581      0xc12 c:/altera/13.0sp1/nios2eds/bin/gnu/h-i686-mingw32/bin/../lib/gcc/nios2-elf/4.1.2\libgcc.a(_udivdi3.o)
 .debug_loc     0x00009193      0xc26 c:/altera/13.0sp1/nios2eds/bin/gnu/h-i686-mingw32/bin/../lib/gcc/nios2-elf/4.1.2\libgcc.a(_umoddi3.o)
 .debug_loc     0x00009db9      0x47a c:/altera/13.0sp1/nios2eds/bin/gnu/h-i686-mingw32/bin/../lib/gcc/nios2-elf/4.1.2\libgcc.a(_addsub_df.o)
 .debug_loc     0x0000a233      0x3b4 c:/altera/13.0sp1/nios2eds/bin/gnu/h-i686-mingw32/bin/../lib/gcc/nios2-elf/4.1.2\libgcc.a(_mul_df.o)
 .debug_loc     0x0000a5e7      0x1df c:/altera/13.0sp1/nios2eds/bin/gnu/h-i686-mingw32/bin/../lib/gcc/nios2-elf/4.1.2\libgcc.a(_div_df.o)
 .debug_loc     0x0000a7c6       0x70 c:/altera/13.0sp1/nios2eds/bin/gnu/h-i686-mingw32/bin/../lib/gcc/nios2-elf/4.1.2\libgcc.a(_eq_df.o)
 .debug_loc     0x0000a836       0x70 c:/altera/13.0sp1/nios2eds/bin/gnu/h-i686-mingw32/bin/../lib/gcc/nios2-elf/4.1.2\libgcc.a(_ne_df.o)
 .debug_loc     0x0000a8a6       0x70 c:/altera/13.0sp1/nios2eds/bin/gnu/h-i686-mingw32/bin/../lib/gcc/nios2-elf/4.1.2\libgcc.a(_gt_df.o)
 .debug_loc     0x0000a916       0x70 c:/altera/13.0sp1/nios2eds/bin/gnu/h-i686-mingw32/bin/../lib/gcc/nios2-elf/4.1.2\libgcc.a(_ge_df.o)
 .debug_loc     0x0000a986       0x70 c:/altera/13.0sp1/nios2eds/bin/gnu/h-i686-mingw32/bin/../lib/gcc/nios2-elf/4.1.2\libgcc.a(_lt_df.o)
 .debug_loc     0x0000a9f6       0x9a c:/altera/13.0sp1/nios2eds/bin/gnu/h-i686-mingw32/bin/../lib/gcc/nios2-elf/4.1.2\libgcc.a(_si_to_df.o)
 .debug_loc     0x0000aa90       0x8b c:/altera/13.0sp1/nios2eds/bin/gnu/h-i686-mingw32/bin/../lib/gcc/nios2-elf/4.1.2\libgcc.a(_df_to_si.o)
 .debug_loc     0x0000ab1b       0x5b c:/altera/13.0sp1/nios2eds/bin/gnu/h-i686-mingw32/bin/../lib/gcc/nios2-elf/4.1.2\libgcc.a(_usi_to_df.o)
 .debug_loc     0x0000ab76      0x1d2 c:/altera/13.0sp1/nios2eds/bin/gnu/h-i686-mingw32/bin/../lib/gcc/nios2-elf/4.1.2\libgcc.a(lib2-divmod.o)
 .debug_loc     0x0000ad48       0xc4 c:/altera/13.0sp1/nios2eds/bin/gnu/h-i686-mingw32/bin/../lib/gcc/nios2-elf/4.1.2\libgcc.a(_muldi3.o)
 .debug_loc     0x0000ae0c       0x1e c:/altera/13.0sp1/nios2eds/bin/gnu/h-i686-mingw32/bin/../lib/gcc/nios2-elf/4.1.2\libgcc.a(_clzsi2.o)
 .debug_loc     0x0000ae2a      0x184 c:/altera/13.0sp1/nios2eds/bin/gnu/h-i686-mingw32/bin/../lib/gcc/nios2-elf/4.1.2\libgcc.a(_pack_df.o)
 .debug_loc     0x0000afae       0xe5 c:/altera/13.0sp1/nios2eds/bin/gnu/h-i686-mingw32/bin/../lib/gcc/nios2-elf/4.1.2\libgcc.a(_unpack_df.o)
 .debug_loc     0x0000b093       0x56 ../Ascensor_bsp/\libucosii_bsp.a(alt_close.o)
 .debug_loc     0x0000b0e9       0x2b ../Ascensor_bsp/\libucosii_bsp.a(alt_dev.o)
 .debug_loc     0x0000b114       0x56 ../Ascensor_bsp/\libucosii_bsp.a(alt_fstat.o)
 .debug_loc     0x0000b16a       0x2c ../Ascensor_bsp/\libucosii_bsp.a(alt_irq_register.o)
 .debug_loc     0x0000b196       0x57 ../Ascensor_bsp/\libucosii_bsp.a(alt_isatty.o)
 .debug_loc     0x0000b1ed       0x56 ../Ascensor_bsp/\libucosii_bsp.a(alt_load.o)
 .debug_loc     0x0000b243       0x56 ../Ascensor_bsp/\libucosii_bsp.a(alt_lseek.o)
 .debug_loc     0x0000b299       0x2b ../Ascensor_bsp/\libucosii_bsp.a(alt_main.o)
 .debug_loc     0x0000b2c4       0x56 ../Ascensor_bsp/\libucosii_bsp.a(alt_read.o)
 .debug_loc     0x0000b31a       0x2b ../Ascensor_bsp/\libucosii_bsp.a(alt_release_fd.o)
 .debug_loc     0x0000b345       0x2b ../Ascensor_bsp/\libucosii_bsp.a(alt_sbrk.o)
 .debug_loc     0x0000b370       0x56 ../Ascensor_bsp/\libucosii_bsp.a(alt_write.o)
 .debug_loc     0x0000b3c6       0x57 ../Ascensor_bsp/\libucosii_bsp.a(alt_env_lock.o)
 .debug_loc     0x0000b41d       0x57 ../Ascensor_bsp/\libucosii_bsp.a(alt_malloc_lock.o)
 .debug_loc     0x0000b474      0x5e2 ../Ascensor_bsp/\libucosii_bsp.a(os_core.o)
 .debug_loc     0x0000ba56       0x2b ../Ascensor_bsp/\libucosii_bsp.a(os_dbg.o)
 .debug_loc     0x0000ba81      0x232 ../Ascensor_bsp/\libucosii_bsp.a(os_flag.o)
 .debug_loc     0x0000bcb3      0x158 ../Ascensor_bsp/\libucosii_bsp.a(os_mbox.o)
 .debug_loc     0x0000be0b      0x12d ../Ascensor_bsp/\libucosii_bsp.a(os_mem.o)
 .debug_loc     0x0000bf38      0x1da ../Ascensor_bsp/\libucosii_bsp.a(os_q.o)
 .debug_loc     0x0000c112      0x158 ../Ascensor_bsp/\libucosii_bsp.a(os_sem.o)
 .debug_loc     0x0000c26a      0x207 ../Ascensor_bsp/\libucosii_bsp.a(os_task.o)
 .debug_loc     0x0000c471       0xd7 ../Ascensor_bsp/\libucosii_bsp.a(os_time.o)
 .debug_loc     0x0000c548       0x81 ../Ascensor_bsp/\libucosii_bsp.a(alt_sys_init.o)
 .debug_loc     0x0000c5c9       0xac ../Ascensor_bsp/\libucosii_bsp.a(altera_avalon_jtag_uart_fd.o)
 .debug_loc     0x0000c675       0xac ../Ascensor_bsp/\libucosii_bsp.a(altera_avalon_jtag_uart_init.o)
 .debug_loc     0x0000c721       0x2b ../Ascensor_bsp/\libucosii_bsp.a(altera_avalon_jtag_uart_ioctl.o)
 .debug_loc     0x0000c74c       0x2c ../Ascensor_bsp/\libucosii_bsp.a(altera_avalon_jtag_uart_read.o)
 .debug_loc     0x0000c778       0x2c ../Ascensor_bsp/\libucosii_bsp.a(altera_avalon_jtag_uart_write.o)
 .debug_loc     0x0000c7a4       0x56 ../Ascensor_bsp/\libucosii_bsp.a(altera_avalon_timer_sc.o)
 .debug_loc     0x0000c7fa      0x22f ../Ascensor_bsp/\libucosii_bsp.a(altera_up_avalon_character_lcd.o)
 .debug_loc     0x0000ca29       0x2b ../Ascensor_bsp/\libucosii_bsp.a(alt_alarm_start.o)
 .debug_loc     0x0000ca54       0x2b ../Ascensor_bsp/\libucosii_bsp.a(alt_dcache_flush_all.o)
 .debug_loc     0x0000ca7f       0x56 ../Ascensor_bsp/\libucosii_bsp.a(alt_dev_llist_insert.o)
 .debug_loc     0x0000cad5       0x2b ../Ascensor_bsp/\libucosii_bsp.a(alt_do_ctors.o)
 .debug_loc     0x0000cb00       0x2b ../Ascensor_bsp/\libucosii_bsp.a(alt_do_dtors.o)
 .debug_loc     0x0000cb2b       0x2b ../Ascensor_bsp/\libucosii_bsp.a(alt_find_dev.o)
 .debug_loc     0x0000cb56       0x2b ../Ascensor_bsp/\libucosii_bsp.a(alt_icache_flush_all.o)
 .debug_loc     0x0000cb81       0x56 ../Ascensor_bsp/\libucosii_bsp.a(alt_io_redirect.o)
 .debug_loc     0x0000cbd7       0x2b ../Ascensor_bsp/\libucosii_bsp.a(alt_irq_handler.o)
 .debug_loc     0x0000cc02       0x81 ../Ascensor_bsp/\libucosii_bsp.a(alt_open.o)
 .debug_loc     0x0000cc83       0x56 ../Ascensor_bsp/\libucosii_bsp.a(alt_tick.o)
 .debug_loc     0x0000ccd9       0x2b ../Ascensor_bsp/\libucosii_bsp.a(altera_nios2_qsys_irq.o)
 .debug_loc     0x0000cd04      0x1ae ../Ascensor_bsp/\libucosii_bsp.a(os_cpu_c.o)
 .debug_loc     0x0000ceb2       0x2b ../Ascensor_bsp/\libucosii_bsp.a(alt_find_file.o)
 .debug_loc     0x0000cedd       0x2b ../Ascensor_bsp/\libucosii_bsp.a(alt_get_fd.o)
 .debug_loc     0x0000cf08       0x2b ../Ascensor_bsp/\libucosii_bsp.a(alt_icache_flush.o)
 .debug_loc     0x0000cf33       0x1e c:/altera/13.0sp1/nios2eds/bin/gnu/h-i686-mingw32/bin/../lib/gcc/nios2-elf/4.1.2/../../../../nios2-elf/lib\libc.a(lib_a-atexit.o)
 .debug_loc     0x0000cf51       0x3d c:/altera/13.0sp1/nios2eds/bin/gnu/h-i686-mingw32/bin/../lib/gcc/nios2-elf/4.1.2/../../../../nios2-elf/lib\libc.a(lib_a-exit.o)
 .debug_loc     0x0000cf8e      0x114 c:/altera/13.0sp1/nios2eds/bin/gnu/h-i686-mingw32/bin/../lib/gcc/nios2-elf/4.1.2/../../../../nios2-elf/lib\libc.a(lib_a-memcmp.o)
 .debug_loc     0x0000d0a2      0x120 c:/altera/13.0sp1/nios2eds/bin/gnu/h-i686-mingw32/bin/../lib/gcc/nios2-elf/4.1.2/../../../../nios2-elf/lib\libc.a(lib_a-__atexit.o)
 .debug_loc     0x0000d1c2      0x1cb c:/altera/13.0sp1/nios2eds/bin/gnu/h-i686-mingw32/bin/../lib/gcc/nios2-elf/4.1.2/../../../../nios2-elf/lib\libc.a(lib_a-__call_atexit.o)
 .debug_loc     0x0000d38d       0x87 c:/altera/13.0sp1/nios2eds/bin/gnu/h-i686-mingw32/bin/../lib/gcc/nios2-elf/4.1.2\libgcc.a(_fixunsdfsi.o)
 .debug_loc     0x0000d414       0x56 ../Ascensor_bsp/\libucosii_bsp.a(alt_exit.o)

.debug_macinfo
 *(.debug_macinfo)

.debug_weaknames
 *(.debug_weaknames)

.debug_funcnames
 *(.debug_funcnames)

.debug_typenames
 *(.debug_typenames)

.debug_varnames
 *(.debug_varnames)

.debug_alt_sim_info
                0x00000000       0x20
 *(.debug_alt_sim_info)
 .debug_alt_sim_info
                0x00000000       0x20 ../Ascensor_bsp//obj/HAL/src/crt0.o
                0x08000000                __alt_data_end = 0x8000000
                0x08000000                PROVIDE (__alt_stack_pointer, __alt_data_end)
                0x000327a8                PROVIDE (__alt_stack_limit, __alt_stack_base)
                0x000327a8                PROVIDE (__alt_heap_start, end)
                0x08000000                PROVIDE (__alt_heap_limit, 0x8000000)
OUTPUT(Ascensor.elf elf32-littlenios2)

.debug_ranges   0x00000000      0x9a8
 .debug_ranges  0x00000000       0x20 ../Ascensor_bsp//obj/HAL/src/crt0.o
 .debug_ranges  0x00000020      0x168 c:/altera/13.0sp1/nios2eds/bin/gnu/h-i686-mingw32/bin/../lib/gcc/nios2-elf/4.1.2/../../../../nios2-elf/lib\libc.a(lib_a-vfprintf.o)
 .debug_ranges  0x00000188       0x20 c:/altera/13.0sp1/nios2eds/bin/gnu/h-i686-mingw32/bin/../lib/gcc/nios2-elf/4.1.2/../../../../nios2-elf/lib\libc.a(lib_a-fflush.o)
 .debug_ranges  0x000001a8       0x28 c:/altera/13.0sp1/nios2eds/bin/gnu/h-i686-mingw32/bin/../lib/gcc/nios2-elf/4.1.2/../../../../nios2-elf/lib\libc.a(lib_a-fvwrite.o)
 .debug_ranges  0x000001d0       0xa0 c:/altera/13.0sp1/nios2eds/bin/gnu/h-i686-mingw32/bin/../lib/gcc/nios2-elf/4.1.2/../../../../nios2-elf/lib\libc.a(lib_a-fwalk.o)
 .debug_ranges  0x00000270       0x70 c:/altera/13.0sp1/nios2eds/bin/gnu/h-i686-mingw32/bin/../lib/gcc/nios2-elf/4.1.2/../../../../nios2-elf/lib\libc.a(lib_a-mallocr.o)
 .debug_ranges  0x000002e0      0x110 c:/altera/13.0sp1/nios2eds/bin/gnu/h-i686-mingw32/bin/../lib/gcc/nios2-elf/4.1.2/../../../../nios2-elf/lib\libc.a(lib_a-reallocr.o)
 .debug_ranges  0x000003f0       0x38 c:/altera/13.0sp1/nios2eds/bin/gnu/h-i686-mingw32/bin/../lib/gcc/nios2-elf/4.1.2/../../../../nios2-elf/lib\libc.a(lib_a-callocr.o)
 .debug_ranges  0x00000428      0x188 c:/altera/13.0sp1/nios2eds/bin/gnu/h-i686-mingw32/bin/../lib/gcc/nios2-elf/4.1.2\libgcc.a(_udivdi3.o)
 .debug_ranges  0x000005b0      0x198 c:/altera/13.0sp1/nios2eds/bin/gnu/h-i686-mingw32/bin/../lib/gcc/nios2-elf/4.1.2\libgcc.a(_umoddi3.o)
 .debug_ranges  0x00000748       0x30 c:/altera/13.0sp1/nios2eds/bin/gnu/h-i686-mingw32/bin/../lib/gcc/nios2-elf/4.1.2\libgcc.a(_addsub_df.o)
 .debug_ranges  0x00000778       0x88 c:/altera/13.0sp1/nios2eds/bin/gnu/h-i686-mingw32/bin/../lib/gcc/nios2-elf/4.1.2\libgcc.a(_mul_df.o)
 .debug_ranges  0x00000800       0x50 c:/altera/13.0sp1/nios2eds/bin/gnu/h-i686-mingw32/bin/../lib/gcc/nios2-elf/4.1.2\libgcc.a(_div_df.o)
 .debug_ranges  0x00000850       0x18 c:/altera/13.0sp1/nios2eds/bin/gnu/h-i686-mingw32/bin/../lib/gcc/nios2-elf/4.1.2\libgcc.a(_usi_to_df.o)
 .debug_ranges  0x00000868       0x68 c:/altera/13.0sp1/nios2eds/bin/gnu/h-i686-mingw32/bin/../lib/gcc/nios2-elf/4.1.2\libgcc.a(_muldi3.o)
 .debug_ranges  0x000008d0       0x28 c:/altera/13.0sp1/nios2eds/bin/gnu/h-i686-mingw32/bin/../lib/gcc/nios2-elf/4.1.2\libgcc.a(_clzsi2.o)
 .debug_ranges  0x000008f8       0x28 c:/altera/13.0sp1/nios2eds/bin/gnu/h-i686-mingw32/bin/../lib/gcc/nios2-elf/4.1.2\libgcc.a(_pack_df.o)
 .debug_ranges  0x00000920       0x18 ../Ascensor_bsp/\libucosii_bsp.a(altera_avalon_jtag_uart_init.o)
 .debug_ranges  0x00000938       0x28 ../Ascensor_bsp/\libucosii_bsp.a(alt_irq_entry.o)
 .debug_ranges  0x00000960       0x30 ../Ascensor_bsp/\libucosii_bsp.a(alt_exception_entry.o)
 .debug_ranges  0x00000990       0x18 c:/altera/13.0sp1/nios2eds/bin/gnu/h-i686-mingw32/bin/../lib/gcc/nios2-elf/4.1.2/../../../../nios2-elf/lib\libc.a(lib_a-__call_atexit.o)
